00000000  7F45              jg 0x47
00000002  4C                dec esp
00000003  46                inc esi
00000004  0101              add [ecx],eax
00000006  0100              add [eax],eax
00000008  0000              add [eax],al
0000000A  0000              add [eax],al
0000000C  0000              add [eax],al
0000000E  0000              add [eax],al
00000010  0200              add al,[eax]
00000012  0300              add eax,[eax]
00000014  0100              add [eax],eax
00000016  0000              add [eax],al
00000018  80870408340000    add byte [edi+0x340804],0x0
0000001F  00DC              add ah,bl
00000021  6D                insd
00000022  0000              add [eax],al
00000024  0000              add [eax],al
00000026  0000              add [eax],al
00000028  3400              xor al,0x0
0000002A  2000              and [eax],al
0000002C  0900              or [eax],eax
0000002E  2800              sub [eax],al
00000030  2000              and [eax],al
00000032  1D00060000        sbb eax,0x600
00000037  003400            add [eax+eax],dh
0000003A  0000              add [eax],al
0000003C  3480              xor al,0x80
0000003E  0408              add al,0x8
00000040  3480              xor al,0x80
00000042  0408              add al,0x8
00000044  2001              and [ecx],al
00000046  0000              add [eax],al
00000048  2001              and [ecx],al
0000004A  0000              add [eax],al
0000004C  0500000004        add eax,0x4000000
00000051  0000              add [eax],al
00000053  0003              add [ebx],al
00000055  0000              add [eax],al
00000057  00540100          add [ecx+eax+0x0],dl
0000005B  00548104          add [ecx+eax*4+0x4],dl
0000005F  08548104          or [ecx+eax*4+0x4],dl
00000063  0813              or [ebx],dl
00000065  0000              add [eax],al
00000067  0013              add [ebx],dl
00000069  0000              add [eax],al
0000006B  000400            add [eax+eax],al
0000006E  0000              add [eax],al
00000070  0100              add [eax],eax
00000072  0000              add [eax],al
00000074  0100              add [eax],eax
00000076  0000              add [eax],al
00000078  0000              add [eax],al
0000007A  0000              add [eax],al
0000007C  008004080080      add [eax-0x7ffff7fc],al
00000082  0408              add al,0x8
00000084  0032              add [edx],dh
00000086  0000              add [eax],al
00000088  0032              add [edx],dh
0000008A  0000              add [eax],al
0000008C  0500000000        add eax,0x0
00000091  1000              adc [eax],al
00000093  0001              add [ecx],al
00000095  0000              add [eax],al
00000097  00F4              add ah,dh
00000099  3E0000            add [ds:eax],al
0000009C  F4                hlt
0000009D  CE                into
0000009E  0408              add al,0x8
000000A0  F4                hlt
000000A1  CE                into
000000A2  0408              add al,0x8
000000A4  60                pusha
000000A5  0100              add [eax],eax
000000A7  00640100          add [ecx+eax+0x0],ah
000000AB  0006              add [esi],al
000000AD  0000              add [eax],al
000000AF  0000              add [eax],al
000000B1  1000              adc [eax],al
000000B3  0002              add [edx],al
000000B5  0000              add [eax],al
000000B7  00043F            add [edi+edi],al
000000BA  0000              add [eax],al
000000BC  04CF              add al,0xcf
000000BE  0408              add al,0x8
000000C0  04CF              add al,0xcf
000000C2  0408              add al,0x8
000000C4  F8                clc
000000C5  0000              add [eax],al
000000C7  00F8              add al,bh
000000C9  0000              add [eax],al
000000CB  0006              add [esi],al
000000CD  0000              add [eax],al
000000CF  000400            add [eax+eax],al
000000D2  0000              add [eax],al
000000D4  0400              add al,0x0
000000D6  0000              add [eax],al
000000D8  6801000068        push dword 0x68000001
000000DD  81040868810408    add dword [eax+ecx],0x8048168
000000E4  44                inc esp
000000E5  0000              add [eax],al
000000E7  00440000          add [eax+eax+0x0],al
000000EB  000400            add [eax+eax],al
000000EE  0000              add [eax],al
000000F0  0400              add al,0x0
000000F2  0000              add [eax],al
000000F4  50                push eax
000000F5  E574              in eax,0x74
000000F7  648C20            mov [fs:eax],fs
000000FA  0000              add [eax],al
000000FC  8CA004088CA0      mov [eax-0x5f73f7fc],fs
00000102  0408              add al,0x8
00000104  3C03              cmp al,0x3
00000106  0000              add [eax],al
00000108  3C03              cmp al,0x3
0000010A  0000              add [eax],al
0000010C  0400              add al,0x0
0000010E  0000              add [eax],al
00000110  0400              add al,0x0
00000112  0000              add [eax],al
00000114  51                push ecx
00000115  E574              in eax,0x74
00000117  640000            add [fs:eax],al
0000011A  0000              add [eax],al
0000011C  0000              add [eax],al
0000011E  0000              add [eax],al
00000120  0000              add [eax],al
00000122  0000              add [eax],al
00000124  0000              add [eax],al
00000126  0000              add [eax],al
00000128  0000              add [eax],al
0000012A  0000              add [eax],al
0000012C  06                push es
0000012D  0000              add [eax],al
0000012F  0010              add [eax],dl
00000131  0000              add [eax],al
00000133  0052E5            add [edx-0x1b],dl
00000136  7464              jz 0x19c
00000138  F4                hlt
00000139  3E0000            add [ds:eax],al
0000013C  F4                hlt
0000013D  CE                into
0000013E  0408              add al,0x8
00000140  F4                hlt
00000141  CE                into
00000142  0408              add al,0x8
00000144  0C01              or al,0x1
00000146  0000              add [eax],al
00000148  0C01              or al,0x1
0000014A  0000              add [eax],al
0000014C  0400              add al,0x0
0000014E  0000              add [eax],al
00000150  0100              add [eax],eax
00000152  0000              add [eax],al
00000154  2F                das
00000155  6C                insb
00000156  69622F6C642D6C    imul esp,[edx+0x2f],dword 0x6c2d646c
0000015D  696E75782E736F    imul ebp,[esi+0x75],dword 0x6f732e78
00000164  2E3200            xor al,[cs:eax]
00000167  000400            add [eax+eax],al
0000016A  0000              add [eax],al
0000016C  1000              adc [eax],al
0000016E  0000              add [eax],al
00000170  0100              add [eax],eax
00000172  0000              add [eax],al
00000174  47                inc edi
00000175  4E                dec esi
00000176  55                push ebp
00000177  0000              add [eax],al
00000179  0000              add [eax],al
0000017B  0002              add [edx],al
0000017D  0000              add [eax],al
0000017F  0006              add [esi],al
00000181  0000              add [eax],al
00000183  0020              add [eax],ah
00000185  0000              add [eax],al
00000187  000400            add [eax+eax],al
0000018A  0000              add [eax],al
0000018C  1400              adc al,0x0
0000018E  0000              add [eax],al
00000190  0300              add eax,[eax]
00000192  0000              add [eax],al
00000194  47                inc edi
00000195  4E                dec esi
00000196  55                push ebp
00000197  007A2A            add [edx+0x2a],bh
0000019A  78F2              js 0x18e
0000019C  AC                lodsb
0000019D  46                inc esi
0000019E  CA3F72            retf 0x723f
000001A1  2C05              sub al,0x5
000001A3  B2C2              mov dl,0xc2
000001A5  7FF3              jg 0x19a
000001A7  D6                salc
000001A8  58                pop eax
000001A9  6AA2              push byte -0x5e
000001AB  E303              jecxz 0x1b0
000001AD  0000              add [eax],al
000001AF  0013              add [ebx],dl
000001B1  0000              add [eax],al
000001B3  0001              add [ecx],al
000001B5  0000              add [eax],al
000001B7  000500000000      add [dword 0x0],al
000001BD  2B00              sub eax,[eax]
000001BF  2100              and [eax],eax
000001C1  0000              add [eax],al
000001C3  0013              add [ebx],dl
000001C5  0000              add [eax],al
000001C7  001400            add [eax+eax],dl
000001CA  0000              add [eax],al
000001CC  AD                lodsd
000001CD  4B                dec ebx
000001CE  E3C0              jecxz 0x190
000001D0  2845D5            sub [ebp-0x2b],al
000001D3  4C                dec esp
000001D4  7949              jns 0x21f
000001D6  6BB60000000000    imul esi,[esi+0x0],byte +0x0
000001DD  0000              add [eax],al
000001DF  0000              add [eax],al
000001E1  0000              add [eax],al
000001E3  0000              add [eax],al
000001E5  0000              add [eax],al
000001E7  008B00000000      add [ebx+0x0],cl
000001ED  0000              add [eax],al
000001EF  0000              add [eax],al
000001F1  0000              add [eax],al
000001F3  0012              add [edx],dl
000001F5  0000              add [eax],al
000001F7  005F01            add [edi+0x1],bl
000001FA  0000              add [eax],al
000001FC  0000              add [eax],al
000001FE  0000              add [eax],al
00000200  0000              add [eax],al
00000202  0000              add [eax],al
00000204  1200              adc al,[eax]
00000206  0000              add [eax],al
00000208  1000              adc [eax],al
0000020A  0000              add [eax],al
0000020C  0000              add [eax],al
0000020E  0000              add [eax],al
00000210  0000              add [eax],al
00000212  0000              add [eax],al
00000214  2000              and [eax],al
00000216  0000              add [eax],al
00000218  1F                pop ds
00000219  0000              add [eax],al
0000021B  0000              add [eax],al
0000021D  0000              add [eax],al
0000021F  0000              add [eax],al
00000221  0000              add [eax],al
00000223  0020              add [eax],ah
00000225  0000              add [eax],al
00000227  001B              add [ebx],bl
00000229  0100              add [eax],eax
0000022B  0000              add [eax],al
0000022D  0000              add [eax],al
0000022F  0000              add [eax],al
00000231  0000              add [eax],al
00000233  0012              add [edx],dl
00000235  0000              add [eax],al
00000237  00A900000000      add [ecx+0x0],ch
0000023D  0000              add [eax],al
0000023F  0000              add [eax],al
00000241  0000              add [eax],al
00000243  0012              add [edx],dl
00000245  0000              add [eax],al
00000247  0003              add [ebx],al
00000249  0100              add [eax],eax
0000024B  0000              add [eax],al
0000024D  0000              add [eax],al
0000024F  0000              add [eax],al
00000251  0000              add [eax],al
00000253  0012              add [edx],dl
00000255  0000              add [eax],al
00000257  007A01            add [edx+0x1],bh
0000025A  0000              add [eax],al
0000025C  0000              add [eax],al
0000025E  0000              add [eax],al
00000260  0000              add [eax],al
00000262  0000              add [eax],al
00000264  1200              adc al,[eax]
00000266  0000              add [eax],al
00000268  3300              xor eax,[eax]
0000026A  0000              add [eax],al
0000026C  0000              add [eax],al
0000026E  0000              add [eax],al
00000270  0000              add [eax],al
00000272  0000              add [eax],al
00000274  2000              and [eax],al
00000276  0000              add [eax],al
00000278  6C                insb
00000279  0100              add [eax],eax
0000027B  0000              add [eax],al
0000027D  0000              add [eax],al
0000027F  0000              add [eax],al
00000281  0000              add [eax],al
00000283  0012              add [edx],dl
00000285  0000              add [eax],al
00000287  004F00            add [edi+0x0],cl
0000028A  0000              add [eax],al
0000028C  0000              add [eax],al
0000028E  0000              add [eax],al
00000290  0000              add [eax],al
00000292  0000              add [eax],al
00000294  2000              and [eax],al
00000296  0000              add [eax],al
00000298  58                pop eax
00000299  0100              add [eax],eax
0000029B  0000              add [eax],al
0000029D  0000              add [eax],al
0000029F  0000              add [eax],al
000002A1  0000              add [eax],al
000002A3  0012              add [edx],dl
000002A5  0000              add [eax],al
000002A7  00FD              add ch,bh
000002A9  0000              add [eax],al
000002AB  0000              add [eax],al
000002AD  0000              add [eax],al
000002AF  0000              add [eax],al
000002B1  0000              add [eax],al
000002B3  0012              add [edx],dl
000002B5  0000              add [eax],al
000002B7  007201            add [edx+0x1],dh
000002BA  0000              add [eax],al
000002BC  0000              add [eax],al
000002BE  0000              add [eax],al
000002C0  0000              add [eax],al
000002C2  0000              add [eax],al
000002C4  1200              adc al,[eax]
000002C6  0000              add [eax],al
000002C8  690000000000      imul eax,[eax],dword 0x0
000002CE  0000              add [eax],al
000002D0  0000              add [eax],al
000002D2  0000              add [eax],al
000002D4  1200              adc al,[eax]
000002D6  0000              add [eax],al
000002D8  CF                iret
000002D9  0000              add [eax],al
000002DB  0000              add [eax],al
000002DD  0000              add [eax],al
000002DF  0000              add [eax],al
000002E1  0000              add [eax],al
000002E3  0012              add [edx],dl
000002E5  0000              add [eax],al
000002E7  007900            add [ecx+0x0],bh
000002EA  0000              add [eax],al
000002EC  0000              add [eax],al
000002EE  0000              add [eax],al
000002F0  0000              add [eax],al
000002F2  0000              add [eax],al
000002F4  1200              adc al,[eax]
000002F6  0000              add [eax],al
000002F8  3001              xor [ecx],al
000002FA  0000              add [eax],al
000002FC  0000              add [eax],al
000002FE  0000              add [eax],al
00000300  0000              add [eax],al
00000302  0000              add [eax],al
00000304  1200              adc al,[eax]
00000306  0000              add [eax],al
00000308  49                dec ecx
00000309  0100              add [eax],eax
0000030B  004CA004          add [eax+0x4],cl
0000030F  080400            or [eax+eax],al
00000312  0000              add [eax],al
00000314  1100              adc [eax],eax
00000316  1000              adc [eax],al
00000318  B700              mov bh,0x0
0000031A  0000              add [eax],al
0000031C  D08604080000      rol byte [esi+0x804],1
00000322  0000              add [eax],al
00000324  1200              adc al,[eax]
00000326  0000              add [eax],al
00000328  E800000050        call 0x5000032d
0000032D  870408            xchg eax,[eax+ecx]
00000330  0000              add [eax],al
00000332  0000              add [eax],al
00000334  1200              adc al,[eax]
00000336  0000              add [eax],al
00000338  006C6962          add [ecx+ebp*2+0x62],ch
0000033C  7374              jnc 0x3b2
0000033E  64632B            arpl [fs:ebx],bp
00000341  2B2E              sub ebp,[esi]
00000343  736F              jnc 0x3b4
00000345  2E36005F5F        add [ss:edi+0x5f],bl
0000034A  676D              a16 insd
0000034C  6F                outsd
0000034D  6E                outsb
0000034E  5F                pop edi
0000034F  7374              jnc 0x3c5
00000351  61                popa
00000352  7274              jc 0x3c8
00000354  5F                pop edi
00000355  5F                pop edi
00000356  005F4A            add [edi+0x4a],bl
00000359  765F              jna 0x3ba
0000035B  52                push edx
0000035C  6567697374657243  imul esi,[gs:bp+di+0x74],dword 0x6c437265
         -6C
00000365  61                popa
00000366  7373              jnc 0x3db
00000368  657300            gs jnc 0x36b
0000036B  5F                pop edi
0000036C  49                dec ecx
0000036D  54                push esp
0000036E  4D                dec ebp
0000036F  5F                pop edi
00000370  64657265          gs jc 0x3d9
00000374  676973746572544D  imul esi,[bp+di+0x74],dword 0x4d547265
0000037C  43                inc ebx
0000037D  6C                insb
0000037E  6F                outsd
0000037F  6E                outsb
00000380  6554              gs push esp
00000382  61                popa
00000383  626C6500          bound ebp,[ebp+0x0]
00000387  5F                pop edi
00000388  49                dec ecx
00000389  54                push esp
0000038A  4D                dec ebp
0000038B  5F                pop edi
0000038C  7265              jc 0x3f3
0000038E  676973746572544D  imul esi,[bp+di+0x74],dword 0x4d547265
00000396  43                inc ebx
00000397  6C                insb
00000398  6F                outsd
00000399  6E                outsb
0000039A  6554              gs push esp
0000039C  61                popa
0000039D  626C6500          bound ebp,[ebp+0x0]
000003A1  5F                pop edi
000003A2  5F                pop edi
000003A3  637861            arpl [eax+0x61],di
000003A6  5F                pop edi
000003A7  656E              gs outsb
000003A9  645F              fs pop edi
000003AB  636174            arpl [ecx+0x74],sp
000003AE  636800            arpl [eax+0x0],bp
000003B1  5F                pop edi
000003B2  5F                pop edi
000003B3  637861            arpl [eax+0x61],di
000003B6  5F                pop edi
000003B7  626567            bound esp,[ebp+0x67]
000003BA  696E5F63617463    imul ebp,[esi+0x5f],dword 0x63746163
000003C1  68005F5A53        push dword 0x535a5f00
000003C6  7432              jz 0x3fa
000003C8  305F5F            xor [edi+0x5f],bl
000003CB  7468              jz 0x435
000003CD  726F              jc 0x43e
000003CF  775F              ja 0x430
000003D1  6C                insb
000003D2  656E              gs outsb
000003D4  677468            jz 0x43f
000003D7  5F                pop edi
000003D8  657272            gs jc 0x44d
000003DB  6F                outsd
000003DC  7250              jc 0x42e
000003DE  4B                dec ebx
000003DF  6300              arpl [eax],ax
000003E1  5F                pop edi
000003E2  5F                pop edi
000003E3  637861            arpl [eax+0x61],di
000003E6  5F                pop edi
000003E7  7265              jc 0x44e
000003E9  7468              jz 0x453
000003EB  726F              jc 0x45c
000003ED  7700              ja 0x3ef
000003EF  5F                pop edi
000003F0  5A                pop edx
000003F1  4E                dec esi
000003F2  53                push ebx
000003F3  7438              jz 0x42d
000003F5  696F735F626173    imul ebp,[edi+0x73],dword 0x7361625f
000003FC  653449            gs xor al,0x49
000003FF  6E                outsb
00000400  697444314576005F  imul esi,[esp+eax*2+0x31],dword 0x5f007645
00000408  5A                pop edx
00000409  53                push ebx
0000040A  7431              jz 0x43d
0000040C  37                aaa
0000040D  5F                pop edi
0000040E  5F                pop edi
0000040F  7468              jz 0x479
00000411  726F              jc 0x482
00000413  775F              ja 0x474
00000415  626164            bound esp,[ecx+0x64]
00000418  5F                pop edi
00000419  61                popa
0000041A  6C                insb
0000041B  6C                insb
0000041C  6F                outsd
0000041D  637600            arpl [esi+0x0],si
00000420  5F                pop edi
00000421  5F                pop edi
00000422  677878            js 0x49d
00000425  5F                pop edi
00000426  7065              jo 0x48d
00000428  7273              jc 0x49d
0000042A  6F                outsd
0000042B  6E                outsb
0000042C  61                popa
0000042D  6C                insb
0000042E  6974795F7630005F  imul esi,[ecx+edi*2+0x5f],dword 0x5f003076
00000436  5A                pop edx
00000437  6E                outsb
00000438  776A              ja 0x4a4
0000043A  005F5A            add [edi+0x5a],bl
0000043D  4E                dec esi
0000043E  53                push ebx
0000043F  7438              jz 0x479
00000441  696F735F626173    imul ebp,[edi+0x73],dword 0x7361625f
00000448  653449            gs xor al,0x49
0000044B  6E                outsb
0000044C  697443314576005F  imul esi,[ebx+eax*2+0x31],dword 0x5f007645
00000454  5A                pop edx
00000455  646C              fs insb
00000457  50                push eax
00000458  7600              jna 0x45a
0000045A  6C                insb
0000045B  69626763635F73    imul esp,[edx+0x67],dword 0x735f6363
00000462  2E736F            cs jnc 0x4d4
00000465  2E3100            xor [cs:eax],eax
00000468  5F                pop edi
00000469  55                push ebp
0000046A  6E                outsb
0000046B  7769              ja 0x4d6
0000046D  6E                outsb
0000046E  645F              fs pop edi
00000470  52                push edx
00000471  657375            gs jnc 0x4e9
00000474  6D                insd
00000475  65006C6962        add [gs:ecx+ebp*2+0x62],ch
0000047A  632E              arpl [esi],bp
0000047C  736F              jnc 0x4ed
0000047E  2E36005F49        add [ss:edi+0x49],bl
00000483  4F                dec edi
00000484  5F                pop edi
00000485  7374              jnc 0x4fb
00000487  64696E5F75736564  imul ebp,[fs:esi+0x5f],dword 0x64657375
0000048F  007072            add [eax+0x72],dh
00000492  696E7466005F5F    imul ebp,[esi+0x74],dword 0x5f5f0066
00000499  637861            arpl [eax+0x61],di
0000049C  5F                pop edi
0000049D  61                popa
0000049E  7465              jz 0x505
000004A0  7869              js 0x50b
000004A2  7400              jz 0x4a4
000004A4  7363              jnc 0x509
000004A6  61                popa
000004A7  6E                outsb
000004A8  66006D65          o16 add [ebp+0x65],ch
000004AC  6D                insd
000004AD  6D                insd
000004AE  6F                outsd
000004AF  7665              jna 0x516
000004B1  005F5F            add [edi+0x5f],bl
000004B4  6C                insb
000004B5  6962635F737461    imul esp,[edx+0x63],dword 0x6174735f
000004BC  7274              jc 0x532
000004BE  5F                pop edi
000004BF  6D                insd
000004C0  61                popa
000004C1  696E004743435F    imul ebp,[esi+0x0],dword 0x5f434347
000004C8  332E              xor ebp,[esi]
000004CA  3000              xor [eax],al
000004CC  47                inc edi
000004CD  4C                dec esp
000004CE  49                dec ecx
000004CF  42                inc edx
000004D0  43                inc ebx
000004D1  5F                pop edi
000004D2  322E              xor ch,[esi]
000004D4  3000              xor [eax],al
000004D6  47                inc edi
000004D7  4C                dec esp
000004D8  49                dec ecx
000004D9  42                inc edx
000004DA  43                inc ebx
000004DB  5F                pop edi
000004DC  322E              xor ch,[esi]
000004DE  312E              xor [esi],ebp
000004E0  3300              xor eax,[eax]
000004E2  43                inc ebx
000004E3  58                pop eax
000004E4  58                pop eax
000004E5  41                inc ecx
000004E6  42                inc edx
000004E7  49                dec ecx
000004E8  5F                pop edi
000004E9  312E              xor [esi],ebp
000004EB  3300              xor eax,[eax]
000004ED  47                inc edi
000004EE  4C                dec esp
000004EF  49                dec ecx
000004F0  42                inc edx
000004F1  43                inc ebx
000004F2  58                pop eax
000004F3  58                pop eax
000004F4  5F                pop edi
000004F5  332E              xor ebp,[esi]
000004F7  3400              xor al,0x0
000004F9  0000              add [eax],al
000004FB  0002              add [edx],al
000004FD  0003              add [ebx],al
000004FF  0000              add [eax],al
00000501  0000              add [eax],al
00000503  0002              add [edx],al
00000505  000400            add [eax+eax],al
00000508  0200              add al,[eax]
0000050A  0500000005        add eax,0x5000000
0000050F  0000              add [eax],al
00000511  000500020005      add [dword 0x5000200],al
00000517  000400            add [eax+eax],al
0000051A  0200              add al,[eax]
0000051C  0400              add al,0x0
0000051E  06                push es
0000051F  0001              add [ecx],al
00000521  0002              add [edx],al
00000523  000400            add [eax+eax],al
00000526  0000              add [eax],al
00000528  0100              add [eax],eax
0000052A  0100              add [eax],eax
0000052C  2201              and al,[ecx]
0000052E  0000              add [eax],al
00000530  1000              adc [eax],al
00000532  0000              add [eax],al
00000534  2000              and [eax],al
00000536  0000              add [eax],al
00000538  50                push eax
00000539  26790B            es jns 0x547
0000053C  0000              add [eax],al
0000053E  06                push es
0000053F  008C0100000000    add [ecx+eax+0x0],cl
00000546  0000              add [eax],al
00000548  0100              add [eax],eax
0000054A  0200              add al,[eax]
0000054C  3F                aas
0000054D  0100              add [eax],eax
0000054F  0010              add [eax],dl
00000551  0000              add [eax],al
00000553  0030              add [eax],dh
00000555  0000              add [eax],al
00000557  0010              add [eax],dl
00000559  69690D00000500    imul ebp,[ecx+0xd],dword 0x50000
00000560  94                xchg eax,esp
00000561  0100              add [eax],eax
00000563  0010              add [eax],dl
00000565  0000              add [eax],al
00000567  00731F            add [ebx+0x1f],dh
0000056A  690900000300      imul ecx,[ecx],dword 0x30000
00000570  9E                sahf
00000571  0100              add [eax],eax
00000573  0000              add [eax],al
00000575  0000              add [eax],al
00000577  0001              add [ecx],al
00000579  0002              add [edx],al
0000057B  0001              add [ecx],al
0000057D  0000              add [eax],al
0000057F  0010              add [eax],dl
00000581  0000              add [eax],al
00000583  0000              add [eax],al
00000585  0000              add [eax],al
00000587  00D3              add bl,dl
00000589  AF                scasd
0000058A  6B0500000400AA    imul eax,[dword 0x40000],byte -0x56
00000591  0100              add [eax],eax
00000593  0010              add [eax],dl
00000595  0000              add [eax],al
00000597  00742992          add [ecx+ebp-0x6e],dh
0000059B  0800              or [eax],al
0000059D  0002              add [edx],al
0000059F  00B501000000      add [ebp+0x1],dh
000005A5  0000              add [eax],al
000005A7  00FC              add ah,bh
000005A9  CF                iret
000005AA  0408              add al,0x8
000005AC  06                push es
000005AD  0300              add eax,[eax]
000005AF  000CD0            add [eax+edx*8],cl
000005B2  0408              add al,0x8
000005B4  07                pop es
000005B5  0100              add [eax],eax
000005B7  0010              add [eax],dl
000005B9  D00408            rol byte [eax+ecx],1
000005BC  07                pop es
000005BD  0200              add al,[eax]
000005BF  0014D0            add [eax+edx*8],dl
000005C2  0408              add al,0x8
000005C4  07                pop es
000005C5  05000018D0        add eax,0xd0180000
000005CA  0408              add al,0x8
000005CC  07                pop es
000005CD  06                push es
000005CE  0000              add [eax],al
000005D0  1CD0              sbb al,0xd0
000005D2  0408              add al,0x8
000005D4  07                pop es
000005D5  07                pop es
000005D6  0000              add [eax],al
000005D8  20D0              and al,dl
000005DA  0408              add al,0x8
000005DC  07                pop es
000005DD  0800              or [eax],al
000005DF  0024D0            add [eax+edx*8],ah
000005E2  0408              add al,0x8
000005E4  07                pop es
000005E5  1400              adc al,0x0
000005E7  0028              add [eax],ch
000005E9  D00408            rol byte [eax+ecx],1
000005EC  07                pop es
000005ED  0A00              or al,[eax]
000005EF  002CD0            add [eax+edx*8],ch
000005F2  0408              add al,0x8
000005F4  07                pop es
000005F5  0C00              or al,0x0
000005F7  0030              add [eax],dh
000005F9  D00408            rol byte [eax+ecx],1
000005FC  07                pop es
000005FD  0D000034D0        or eax,0xd0340000
00000602  0408              add al,0x8
00000604  07                pop es
00000605  0E                push cs
00000606  0000              add [eax],al
00000608  38D0              cmp al,dl
0000060A  0408              add al,0x8
0000060C  07                pop es
0000060D  0F0000            sldt [eax]
00000610  3CD0              cmp al,0xd0
00000612  0408              add al,0x8
00000614  07                pop es
00000615  1000              adc [eax],al
00000617  0040D0            add [eax-0x30],al
0000061A  0408              add al,0x8
0000061C  07                pop es
0000061D  1100              adc [eax],eax
0000061F  0044D004          add [eax+edx*8+0x4],al
00000623  0807              or [edi],al
00000625  15000048D0        adc eax,0xd0480000
0000062A  0408              add al,0x8
0000062C  07                pop es
0000062D  1200              adc al,[eax]
0000062F  005383            add [ebx-0x7d],dl
00000632  EC                in al,dx
00000633  08E8              or al,ch
00000635  7701              ja 0x638
00000637  0000              add [eax],al
00000639  81C3C7490000      add ebx,0x49c7
0000063F  8B83FCFFFFFF      mov eax,[ebx-0x4]
00000645  85C0              test eax,eax
00000647  7405              jz 0x64e
00000649  E822010000        call 0x770
0000064E  83C408            add esp,byte +0x8
00000651  5B                pop ebx
00000652  C3                ret
00000653  0000              add [eax],al
00000655  0000              add [eax],al
00000657  0000              add [eax],al
00000659  0000              add [eax],al
0000065B  0000              add [eax],al
0000065D  0000              add [eax],al
0000065F  00FF              add bh,bh
00000661  3504D00408        xor eax,0x804d004
00000666  FF2508D00408      jmp [dword 0x804d008]
0000066C  0000              add [eax],al
0000066E  0000              add [eax],al
00000670  FF250CD00408      jmp [dword 0x804d00c]
00000676  6800000000        push dword 0x0
0000067B  E9E0FFFFFF        jmp 0x660
00000680  FF2510D00408      jmp [dword 0x804d010]
00000686  6808000000        push dword 0x8
0000068B  E9D0FFFFFF        jmp 0x660
00000690  FF2514D00408      jmp [dword 0x804d014]
00000696  6810000000        push dword 0x10
0000069B  E9C0FFFFFF        jmp 0x660
000006A0  FF2518D00408      jmp [dword 0x804d018]
000006A6  6818000000        push dword 0x18
000006AB  E9B0FFFFFF        jmp 0x660
000006B0  FF251CD00408      jmp [dword 0x804d01c]
000006B6  6820000000        push dword 0x20
000006BB  E9A0FFFFFF        jmp 0x660
000006C0  FF2520D00408      jmp [dword 0x804d020]
000006C6  6828000000        push dword 0x28
000006CB  E990FFFFFF        jmp 0x660
000006D0  FF2524D00408      jmp [dword 0x804d024]
000006D6  6830000000        push dword 0x30
000006DB  E980FFFFFF        jmp 0x660
000006E0  FF2528D00408      jmp [dword 0x804d028]
000006E6  6838000000        push dword 0x38
000006EB  E970FFFFFF        jmp 0x660
000006F0  FF252CD00408      jmp [dword 0x804d02c]
000006F6  6840000000        push dword 0x40
000006FB  E960FFFFFF        jmp 0x660
00000700  FF2530D00408      jmp [dword 0x804d030]
00000706  6848000000        push dword 0x48
0000070B  E950FFFFFF        jmp 0x660
00000710  FF2534D00408      jmp [dword 0x804d034]
00000716  6850000000        push dword 0x50
0000071B  E940FFFFFF        jmp 0x660
00000720  FF2538D00408      jmp [dword 0x804d038]
00000726  6858000000        push dword 0x58
0000072B  E930FFFFFF        jmp 0x660
00000730  FF253CD00408      jmp [dword 0x804d03c]
00000736  6860000000        push dword 0x60
0000073B  E920FFFFFF        jmp 0x660
00000740  FF2540D00408      jmp [dword 0x804d040]
00000746  6868000000        push dword 0x68
0000074B  E910FFFFFF        jmp 0x660
00000750  FF2544D00408      jmp [dword 0x804d044]
00000756  6870000000        push dword 0x70
0000075B  E900FFFFFF        jmp 0x660
00000760  FF2548D00408      jmp [dword 0x804d048]
00000766  6878000000        push dword 0x78
0000076B  E9F0FEFFFF        jmp 0x660
00000770  FF25FCCF0408      jmp [dword 0x804cffc]
00000776  6690              xchg ax,ax
00000778  0000              add [eax],al
0000077A  0000              add [eax],al
0000077C  0000              add [eax],al
0000077E  0000              add [eax],al
00000780  31ED              xor ebp,ebp
00000782  5E                pop esi
00000783  89E1              mov ecx,esp
00000785  83E4F0            and esp,byte -0x10
00000788  50                push eax
00000789  54                push esp
0000078A  52                push edx
0000078B  6830A00408        push dword 0x804a030
00000790  68D09F0408        push dword 0x8049fd0
00000795  51                push ecx
00000796  56                push esi
00000797  687D880408        push dword 0x804887d
0000079C  E81FFFFFFF        call 0x6c0
000007A1  F4                hlt
000007A2  6690              xchg ax,ax
000007A4  6690              xchg ax,ax
000007A6  6690              xchg ax,ax
000007A8  6690              xchg ax,ax
000007AA  6690              xchg ax,ax
000007AC  6690              xchg ax,ax
000007AE  6690              xchg ax,ax
000007B0  8B1C24            mov ebx,[esp]
000007B3  C3                ret
000007B4  6690              xchg ax,ax
000007B6  6690              xchg ax,ax
000007B8  6690              xchg ax,ax
000007BA  6690              xchg ax,ax
000007BC  6690              xchg ax,ax
000007BE  6690              xchg ax,ax
000007C0  B857D00408        mov eax,0x804d057
000007C5  2D54D00408        sub eax,0x804d054
000007CA  83F806            cmp eax,byte +0x6
000007CD  7701              ja 0x7d0
000007CF  C3                ret
000007D0  B800000000        mov eax,0x0
000007D5  85C0              test eax,eax
000007D7  74F6              jz 0x7cf
000007D9  55                push ebp
000007DA  89E5              mov ebp,esp
000007DC  83EC18            sub esp,byte +0x18
000007DF  C7042454D00408    mov dword [esp],0x804d054
000007E6  FFD0              call eax
000007E8  C9                leave
000007E9  C3                ret
000007EA  8DB600000000      lea esi,[esi+0x0]
000007F0  B854D00408        mov eax,0x804d054
000007F5  2D54D00408        sub eax,0x804d054
000007FA  C1F802            sar eax,byte 0x2
000007FD  89C2              mov edx,eax
000007FF  C1EA1F            shr edx,byte 0x1f
00000802  01D0              add eax,edx
00000804  D1F8              sar eax,1
00000806  7501              jnz 0x809
00000808  C3                ret
00000809  BA00000000        mov edx,0x0
0000080E  85D2              test edx,edx
00000810  74F6              jz 0x808
00000812  55                push ebp
00000813  89E5              mov ebp,esp
00000815  83EC18            sub esp,byte +0x18
00000818  89442404          mov [esp+0x4],eax
0000081C  C7042454D00408    mov dword [esp],0x804d054
00000823  FFD2              call edx
00000825  C9                leave
00000826  C3                ret
00000827  89F6              mov esi,esi
00000829  8DBC2700000000    lea edi,[edi+0x0]
00000830  803D54D0040800    cmp byte [dword 0x804d054],0x0
00000837  7513              jnz 0x84c
00000839  55                push ebp
0000083A  89E5              mov ebp,esp
0000083C  83EC08            sub esp,byte +0x8
0000083F  E87CFFFFFF        call 0x7c0
00000844  C60554D0040801    mov byte [dword 0x804d054],0x1
0000084B  C9                leave
0000084C  F3C3              rep ret
0000084E  6690              xchg ax,ax
00000850  A100CF0408        mov eax,[0x804cf00]
00000855  85C0              test eax,eax
00000857  741F              jz 0x878
00000859  B800000000        mov eax,0x0
0000085E  85C0              test eax,eax
00000860  7416              jz 0x878
00000862  55                push ebp
00000863  89E5              mov ebp,esp
00000865  83EC18            sub esp,byte +0x18
00000868  C7042400CF0408    mov dword [esp],0x804cf00
0000086F  FFD0              call eax
00000871  C9                leave
00000872  E979FFFFFF        jmp 0x7f0
00000877  90                nop
00000878  E973FFFFFF        jmp 0x7f0
0000087D  55                push ebp
0000087E  89E5              mov ebp,esp
00000880  53                push ebx
00000881  83E4F0            and esp,byte -0x10
00000884  83EC50            sub esp,byte +0x50
00000887  8D44241C          lea eax,[esp+0x1c]
0000088B  89442404          mov [esp+0x4],eax
0000088F  C7042453A00408    mov dword [esp],0x804a053
00000896  E845FEFFFF        call 0x6e0
0000089B  C744242801000000  mov dword [esp+0x28],0x1
000008A3  E948010000        jmp 0x9f0
000008A8  8D442424          lea eax,[esp+0x24]
000008AC  89442408          mov [esp+0x8],eax
000008B0  8D442420          lea eax,[esp+0x20]
000008B4  89442404          mov [esp+0x4],eax
000008B8  C7042456A00408    mov dword [esp],0x804a056
000008BF  E81CFEFFFF        call 0x6e0
000008C4  8D442434          lea eax,[esp+0x34]
000008C8  890424            mov [esp],eax
000008CB  E8E2010000        call 0xab2
000008D0  8D442434          lea eax,[esp+0x34]
000008D4  89442408          mov [esp+0x8],eax
000008D8  8D44241B          lea eax,[esp+0x1b]
000008DC  89442404          mov [esp+0x4],eax
000008E0  8D442440          lea eax,[esp+0x40]
000008E4  890424            mov [esp],eax
000008E7  E81C020000        call 0xb08
000008EC  8D442434          lea eax,[esp+0x34]
000008F0  890424            mov [esp],eax
000008F3  E8CE010000        call 0xac6
000008F8  8D442420          lea eax,[esp+0x20]
000008FC  89442404          mov [esp+0x4],eax
00000900  8D442440          lea eax,[esp+0x40]
00000904  890424            mov [esp],eax
00000907  E87C020000        call 0xb88
0000090C  C744242C01000000  mov dword [esp+0x2c],0x1
00000914  EB70              jmp short 0x986
00000916  8D442440          lea eax,[esp+0x40]
0000091A  890424            mov [esp],eax
0000091D  E8C4020000        call 0xbe6
00000922  8B00              mov eax,[eax]
00000924  89442430          mov [esp+0x30],eax
00000928  8D442440          lea eax,[esp+0x40]
0000092C  890424            mov [esp],eax
0000092F  E8C6020000        call 0xbfa
00000934  8B442430          mov eax,[esp+0x30]
00000938  89C2              mov edx,eax
0000093A  C1EA1F            shr edx,byte 0x1f
0000093D  01D0              add eax,edx
0000093F  D1F8              sar eax,1
00000941  89442434          mov [esp+0x34],eax
00000945  8D442434          lea eax,[esp+0x34]
00000949  89442404          mov [esp+0x4],eax
0000094D  8D442440          lea eax,[esp+0x40]
00000951  890424            mov [esp],eax
00000954  E801030000        call 0xc5a
00000959  8B442430          mov eax,[esp+0x30]
0000095D  83E801            sub eax,byte +0x1
00000960  89C2              mov edx,eax
00000962  C1EA1F            shr edx,byte 0x1f
00000965  01D0              add eax,edx
00000967  D1F8              sar eax,1
00000969  89442434          mov [esp+0x34],eax
0000096D  8D442434          lea eax,[esp+0x34]
00000971  89442404          mov [esp+0x4],eax
00000975  8D442440          lea eax,[esp+0x40]
00000979  890424            mov [esp],eax
0000097C  E8D9020000        call 0xc5a
00000981  8344242C01        add dword [esp+0x2c],byte +0x1
00000986  8B442424          mov eax,[esp+0x24]
0000098A  3944242C          cmp [esp+0x2c],eax
0000098E  7C86              jl 0x916
00000990  8D442440          lea eax,[esp+0x40]
00000994  890424            mov [esp],eax
00000997  E84A020000        call 0xbe6
0000099C  8B00              mov eax,[eax]
0000099E  83E801            sub eax,byte +0x1
000009A1  89C2              mov edx,eax
000009A3  C1EA1F            shr edx,byte 0x1f
000009A6  01D0              add eax,edx
000009A8  D1F8              sar eax,1
000009AA  89C3              mov ebx,eax
000009AC  8D442440          lea eax,[esp+0x40]
000009B0  890424            mov [esp],eax
000009B3  E82E020000        call 0xbe6
000009B8  8B00              mov eax,[eax]
000009BA  89C2              mov edx,eax
000009BC  C1EA1F            shr edx,byte 0x1f
000009BF  01D0              add eax,edx
000009C1  D1F8              sar eax,1
000009C3  895C240C          mov [esp+0xc],ebx
000009C7  89442408          mov [esp+0x8],eax
000009CB  8B442428          mov eax,[esp+0x28]
000009CF  89442404          mov [esp+0x4],eax
000009D3  C704245BA00408    mov dword [esp],0x804a05b
000009DA  E811FDFFFF        call 0x6f0
000009DF  8D442440          lea eax,[esp+0x40]
000009E3  890424            mov [esp],eax
000009E6  E8B3000000        call 0xa9e
000009EB  8344242801        add dword [esp+0x28],byte +0x1
000009F0  8B44241C          mov eax,[esp+0x1c]
000009F4  39442428          cmp [esp+0x28],eax
000009F8  0F8EAAFEFFFF      jng near 0x8a8
000009FE  B800000000        mov eax,0x0
00000A03  EB30              jmp short 0xa35
00000A05  89C3              mov ebx,eax
00000A07  8D442434          lea eax,[esp+0x34]
00000A0B  890424            mov [esp],eax
00000A0E  E8B3000000        call 0xac6
00000A13  89D8              mov eax,ebx
00000A15  890424            mov [esp],eax
00000A18  E843FDFFFF        call 0x760
00000A1D  89C3              mov ebx,eax
00000A1F  8D442440          lea eax,[esp+0x40]
00000A23  890424            mov [esp],eax
00000A26  E873000000        call 0xa9e
00000A2B  89D8              mov eax,ebx
00000A2D  890424            mov [esp],eax
00000A30  E82BFDFFFF        call 0x760
00000A35  8B5DFC            mov ebx,[ebp-0x4]
00000A38  C9                leave
00000A39  C3                ret
00000A3A  55                push ebp
00000A3B  89E5              mov ebp,esp
00000A3D  83EC18            sub esp,byte +0x18
00000A40  837D0801          cmp dword [ebp+0x8],byte +0x1
00000A44  7531              jnz 0xa77
00000A46  817D0CFFFF0000    cmp dword [ebp+0xc],0xffff
00000A4D  7528              jnz 0xa77
00000A4F  C7042455D00408    mov dword [esp],0x804d055
00000A56  E855FCFFFF        call 0x6b0
00000A5B  C744240850D00408  mov dword [esp+0x8],0x804d050
00000A63  C744240455D00408  mov dword [esp+0x4],0x804d055
00000A6B  C70424D0860408    mov dword [esp],0x80486d0
00000A72  E809FCFFFF        call 0x680
00000A77  C9                leave
00000A78  C3                ret
00000A79  55                push ebp
00000A7A  89E5              mov ebp,esp
00000A7C  83EC18            sub esp,byte +0x18
00000A7F  C7442404FFFF0000  mov dword [esp+0x4],0xffff
00000A87  C7042401000000    mov dword [esp],0x1
00000A8E  E8A7FFFFFF        call 0xa3a
00000A93  C9                leave
00000A94  C3                ret
00000A95  55                push ebp
00000A96  89E5              mov ebp,esp
00000A98  8B450C            mov eax,[ebp+0xc]
00000A9B  5D                pop ebp
00000A9C  C3                ret
00000A9D  90                nop
00000A9E  55                push ebp
00000A9F  89E5              mov ebp,esp
00000AA1  83EC18            sub esp,byte +0x18
00000AA4  8B4508            mov eax,[ebp+0x8]
00000AA7  890424            mov [esp],eax
00000AAA  E817000000        call 0xac6
00000AAF  C9                leave
00000AB0  C3                ret
00000AB1  90                nop
00000AB2  55                push ebp
00000AB3  89E5              mov ebp,esp
00000AB5  83EC18            sub esp,byte +0x18
00000AB8  8B4508            mov eax,[ebp+0x8]
00000ABB  890424            mov [esp],eax
00000ABE  E811020000        call 0xcd4
00000AC3  C9                leave
00000AC4  C3                ret
00000AC5  90                nop
00000AC6  55                push ebp
00000AC7  89E5              mov ebp,esp
00000AC9  83EC18            sub esp,byte +0x18
00000ACC  8B4508            mov eax,[ebp+0x8]
00000ACF  890424            mov [esp],eax
00000AD2  E853020000        call 0xd2a
00000AD7  8B5508            mov edx,[ebp+0x8]
00000ADA  8B4A04            mov ecx,[edx+0x4]
00000ADD  8B5508            mov edx,[ebp+0x8]
00000AE0  8B12              mov edx,[edx]
00000AE2  89442408          mov [esp+0x8],eax
00000AE6  894C2404          mov [esp+0x4],ecx
00000AEA  891424            mov [esp],edx
00000AED  E840020000        call 0xd32
00000AF2  8B4508            mov eax,[ebp+0x8]
00000AF5  890424            mov [esp],eax
00000AF8  E8EB010000        call 0xce8
00000AFD  C9                leave
00000AFE  C3                ret
00000AFF  55                push ebp
00000B00  89E5              mov ebp,esp
00000B02  8B4508            mov eax,[ebp+0x8]
00000B05  5D                pop ebp
00000B06  C3                ret
00000B07  90                nop
00000B08  55                push ebp
00000B09  89E5              mov ebp,esp
00000B0B  53                push ebx
00000B0C  83EC24            sub esp,byte +0x24
00000B0F  8B4510            mov eax,[ebp+0x10]
00000B12  890424            mov [esp],eax
00000B15  E8E5FFFFFF        call 0xaff
00000B1A  8B5508            mov edx,[ebp+0x8]
00000B1D  89442404          mov [esp+0x4],eax
00000B21  891424            mov [esp],edx
00000B24  E823020000        call 0xd4c
00000B29  8B5508            mov edx,[ebp+0x8]
00000B2C  8D45F0            lea eax,[ebp-0x10]
00000B2F  89542404          mov [esp+0x4],edx
00000B33  890424            mov [esp],eax
00000B36  E855020000        call 0xd90
00000B3B  83EC04            sub esp,byte +0x4
00000B3E  8B5508            mov edx,[ebp+0x8]
00000B41  8D45F4            lea eax,[ebp-0xc]
00000B44  89542404          mov [esp+0x4],edx
00000B48  890424            mov [esp],eax
00000B4B  E820020000        call 0xd70
00000B50  83EC04            sub esp,byte +0x4
00000B53  885C2408          mov [esp+0x8],bl
00000B57  8B45F0            mov eax,[ebp-0x10]
00000B5A  89442404          mov [esp+0x4],eax
00000B5E  8B45F4            mov eax,[ebp-0xc]
00000B61  890424            mov [esp],eax
00000B64  E849020000        call 0xdb2
00000B69  EB17              jmp short 0xb82
00000B6B  89C3              mov ebx,eax
00000B6D  8B4508            mov eax,[ebp+0x8]
00000B70  890424            mov [esp],eax
00000B73  E84EFFFFFF        call 0xac6
00000B78  89D8              mov eax,ebx
00000B7A  890424            mov [esp],eax
00000B7D  E8DEFBFFFF        call 0x760
00000B82  8B5DFC            mov ebx,[ebp-0x4]
00000B85  C9                leave
00000B86  C3                ret
00000B87  90                nop
00000B88  55                push ebp
00000B89  89E5              mov ebp,esp
00000B8B  53                push ebx
00000B8C  83EC24            sub esp,byte +0x24
00000B8F  8B4508            mov eax,[ebp+0x8]
00000B92  8B550C            mov edx,[ebp+0xc]
00000B95  89542404          mov [esp+0x4],edx
00000B99  890424            mov [esp],eax
00000B9C  E8E1020000        call 0xe82
00000BA1  8B5508            mov edx,[ebp+0x8]
00000BA4  8D45F0            lea eax,[ebp-0x10]
00000BA7  89542404          mov [esp+0x4],edx
00000BAB  890424            mov [esp],eax
00000BAE  E8DD010000        call 0xd90
00000BB3  83EC04            sub esp,byte +0x4
00000BB6  8B5508            mov edx,[ebp+0x8]
00000BB9  8D45F4            lea eax,[ebp-0xc]
00000BBC  89542404          mov [esp+0x4],edx
00000BC0  890424            mov [esp],eax
00000BC3  E8A8010000        call 0xd70
00000BC8  83EC04            sub esp,byte +0x4
00000BCB  885C2408          mov [esp+0x8],bl
00000BCF  8B45F0            mov eax,[ebp-0x10]
00000BD2  89442404          mov [esp+0x4],eax
00000BD6  8B45F4            mov eax,[ebp-0xc]
00000BD9  890424            mov [esp],eax
00000BDC  E8F8020000        call 0xed9
00000BE1  8B5DFC            mov ebx,[ebp-0x4]
00000BE4  C9                leave
00000BE5  C3                ret
00000BE6  55                push ebp
00000BE7  89E5              mov ebp,esp
00000BE9  83EC18            sub esp,byte +0x18
00000BEC  8B4508            mov eax,[ebp+0x8]
00000BEF  890424            mov [esp],eax
00000BF2  E86F030000        call 0xf66
00000BF7  C9                leave
00000BF8  C3                ret
00000BF9  90                nop
00000BFA  55                push ebp
00000BFB  89E5              mov ebp,esp
00000BFD  53                push ebx
00000BFE  83EC24            sub esp,byte +0x24
00000C01  8B5508            mov edx,[ebp+0x8]
00000C04  8D45F0            lea eax,[ebp-0x10]
00000C07  89542404          mov [esp+0x4],edx
00000C0B  890424            mov [esp],eax
00000C0E  E87D010000        call 0xd90
00000C13  83EC04            sub esp,byte +0x4
00000C16  8B5508            mov edx,[ebp+0x8]
00000C19  8D45F4            lea eax,[ebp-0xc]
00000C1C  89542404          mov [esp+0x4],edx
00000C20  890424            mov [esp],eax
00000C23  E848010000        call 0xd70
00000C28  83EC04            sub esp,byte +0x4
00000C2B  885C2408          mov [esp+0x8],bl
00000C2F  8B45F0            mov eax,[ebp-0x10]
00000C32  89442404          mov [esp+0x4],eax
00000C36  8B45F4            mov eax,[ebp-0xc]
00000C39  890424            mov [esp],eax
00000C3C  E84D030000        call 0xf8e
00000C41  8B4508            mov eax,[ebp+0x8]
00000C44  890424            mov [esp],eax
00000C47  E894030000        call 0xfe0
00000C4C  8B5DFC            mov ebx,[ebp-0x4]
00000C4F  C9                leave
00000C50  C3                ret
00000C51  55                push ebp
00000C52  89E5              mov ebp,esp
00000C54  8B4508            mov eax,[ebp+0x8]
00000C57  5D                pop ebp
00000C58  C3                ret
00000C59  90                nop
00000C5A  55                push ebp
00000C5B  89E5              mov ebp,esp
00000C5D  53                push ebx
00000C5E  83EC24            sub esp,byte +0x24
00000C61  8B450C            mov eax,[ebp+0xc]
00000C64  890424            mov [esp],eax
00000C67  E8E5FFFFFF        call 0xc51
00000C6C  8B5508            mov edx,[ebp+0x8]
00000C6F  89442404          mov [esp+0x4],eax
00000C73  891424            mov [esp],edx
00000C76  E891030000        call 0x100c
00000C7B  8B5508            mov edx,[ebp+0x8]
00000C7E  8D45F0            lea eax,[ebp-0x10]
00000C81  89542404          mov [esp+0x4],edx
00000C85  890424            mov [esp],eax
00000C88  E803010000        call 0xd90
00000C8D  83EC04            sub esp,byte +0x4
00000C90  8B5508            mov edx,[ebp+0x8]
00000C93  8D45F4            lea eax,[ebp-0xc]
00000C96  89542404          mov [esp+0x4],edx
00000C9A  890424            mov [esp],eax
00000C9D  E8CE000000        call 0xd70
00000CA2  83EC04            sub esp,byte +0x4
00000CA5  885C2408          mov [esp+0x8],bl
00000CA9  8B45F0            mov eax,[ebp-0x10]
00000CAC  89442404          mov [esp+0x4],eax
00000CB0  8B45F4            mov eax,[ebp-0xc]
00000CB3  890424            mov [esp],eax
00000CB6  E81E020000        call 0xed9
00000CBB  8B5DFC            mov ebx,[ebp-0x4]
00000CBE  C9                leave
00000CBF  C3                ret
00000CC0  55                push ebp
00000CC1  89E5              mov ebp,esp
00000CC3  83EC18            sub esp,byte +0x18
00000CC6  8B4508            mov eax,[ebp+0x8]
00000CC9  890424            mov [esp],eax
00000CCC  E88D030000        call 0x105e
00000CD1  C9                leave
00000CD2  C3                ret
00000CD3  90                nop
00000CD4  55                push ebp
00000CD5  89E5              mov ebp,esp
00000CD7  83EC18            sub esp,byte +0x18
00000CDA  8B4508            mov eax,[ebp+0x8]
00000CDD  890424            mov [esp],eax
00000CE0  E849030000        call 0x102e
00000CE5  C9                leave
00000CE6  C3                ret
00000CE7  90                nop
00000CE8  55                push ebp
00000CE9  89E5              mov ebp,esp
00000CEB  83EC18            sub esp,byte +0x18
00000CEE  8B4508            mov eax,[ebp+0x8]
00000CF1  8B4008            mov eax,[eax+0x8]
00000CF4  89C2              mov edx,eax
00000CF6  8B4508            mov eax,[ebp+0x8]
00000CF9  8B00              mov eax,[eax]
00000CFB  29C2              sub edx,eax
00000CFD  89D0              mov eax,edx
00000CFF  C1F802            sar eax,byte 0x2
00000D02  89C2              mov edx,eax
00000D04  8B4508            mov eax,[ebp+0x8]
00000D07  8B00              mov eax,[eax]
00000D09  89542408          mov [esp+0x8],edx
00000D0D  89442404          mov [esp+0x4],eax
00000D11  8B4508            mov eax,[ebp+0x8]
00000D14  890424            mov [esp],eax
00000D17  E856030000        call 0x1072
00000D1C  8B4508            mov eax,[ebp+0x8]
00000D1F  890424            mov [esp],eax
00000D22  E899FFFFFF        call 0xcc0
00000D27  C9                leave
00000D28  C3                ret
00000D29  90                nop
00000D2A  55                push ebp
00000D2B  89E5              mov ebp,esp
00000D2D  8B4508            mov eax,[ebp+0x8]
00000D30  5D                pop ebp
00000D31  C3                ret
00000D32  55                push ebp
00000D33  89E5              mov ebp,esp
00000D35  83EC18            sub esp,byte +0x18
00000D38  8B450C            mov eax,[ebp+0xc]
00000D3B  89442404          mov [esp+0x4],eax
00000D3F  8B4508            mov eax,[ebp+0x8]
00000D42  890424            mov [esp],eax
00000D45  E84F030000        call 0x1099
00000D4A  C9                leave
00000D4B  C3                ret
00000D4C  55                push ebp
00000D4D  89E5              mov ebp,esp
00000D4F  83EC18            sub esp,byte +0x18
00000D52  8B450C            mov eax,[ebp+0xc]
00000D55  890424            mov [esp],eax
00000D58  E8A2FDFFFF        call 0xaff
00000D5D  89C2              mov edx,eax
00000D5F  8B4508            mov eax,[ebp+0x8]
00000D62  89542404          mov [esp+0x4],edx
00000D66  890424            mov [esp],eax
00000D69  E84E030000        call 0x10bc
00000D6E  C9                leave
00000D6F  C3                ret
00000D70  55                push ebp
00000D71  89E5              mov ebp,esp
00000D73  83EC18            sub esp,byte +0x18
00000D76  8B450C            mov eax,[ebp+0xc]
00000D79  89442404          mov [esp+0x4],eax
00000D7D  8B4508            mov eax,[ebp+0x8]
00000D80  890424            mov [esp],eax
00000D83  E870030000        call 0x10f8
00000D88  8B4508            mov eax,[ebp+0x8]
00000D8B  C9                leave
00000D8C  C20400            ret 0x4
00000D8F  90                nop
00000D90  55                push ebp
00000D91  89E5              mov ebp,esp
00000D93  83EC18            sub esp,byte +0x18
00000D96  8B450C            mov eax,[ebp+0xc]
00000D99  83C004            add eax,byte +0x4
00000D9C  89442404          mov [esp+0x4],eax
00000DA0  8B4508            mov eax,[ebp+0x8]
00000DA3  890424            mov [esp],eax
00000DA6  E84D030000        call 0x10f8
00000DAB  8B4508            mov eax,[ebp+0x8]
00000DAE  C9                leave
00000DAF  C20400            ret 0x4
00000DB2  55                push ebp
00000DB3  89E5              mov ebp,esp
00000DB5  53                push ebx
00000DB6  83EC34            sub esp,byte +0x34
00000DB9  8D4508            lea eax,[ebp+0x8]
00000DBC  89442404          mov [esp+0x4],eax
00000DC0  8D450C            lea eax,[ebp+0xc]
00000DC3  890424            mov [esp],eax
00000DC6  E83C030000        call 0x1107
00000DCB  83F801            cmp eax,byte +0x1
00000DCE  0F9EC0            setng al
00000DD1  84C0              test al,al
00000DD3  7405              jz 0xdda
00000DD5  E99B000000        jmp 0xe75
00000DDA  8D4508            lea eax,[ebp+0x8]
00000DDD  89442404          mov [esp+0x4],eax
00000DE1  8D450C            lea eax,[ebp+0xc]
00000DE4  890424            mov [esp],eax
00000DE7  E81B030000        call 0x1107
00000DEC  8945F4            mov [ebp-0xc],eax
00000DEF  8B45F4            mov eax,[ebp-0xc]
00000DF2  83E802            sub eax,byte +0x2
00000DF5  89C2              mov edx,eax
00000DF7  C1EA1F            shr edx,byte 0x1f
00000DFA  01D0              add eax,edx
00000DFC  D1F8              sar eax,1
00000DFE  8945E8            mov [ebp-0x18],eax
00000E01  8D45F0            lea eax,[ebp-0x10]
00000E04  8D55E8            lea edx,[ebp-0x18]
00000E07  89542408          mov [esp+0x8],edx
00000E0B  8D4D08            lea ecx,[ebp+0x8]
00000E0E  894C2404          mov [esp+0x4],ecx
00000E12  890424            mov [esp],eax
00000E15  E81E030000        call 0x1138
00000E1A  83EC04            sub esp,byte +0x4
00000E1D  8D45F0            lea eax,[ebp-0x10]
00000E20  890424            mov [esp],eax
00000E23  E842030000        call 0x116a
00000E28  890424            mov [esp],eax
00000E2B  E821FEFFFF        call 0xc51
00000E30  8B00              mov eax,[eax]
00000E32  8945EC            mov [ebp-0x14],eax
00000E35  8D45EC            lea eax,[ebp-0x14]
00000E38  890424            mov [esp],eax
00000E3B  E811FEFFFF        call 0xc51
00000E40  8B10              mov edx,[eax]
00000E42  8B45E8            mov eax,[ebp-0x18]
00000E45  885C2410          mov [esp+0x10],bl
00000E49  8954240C          mov [esp+0xc],edx
00000E4D  8B55F4            mov edx,[ebp-0xc]
00000E50  89542408          mov [esp+0x8],edx
00000E54  89442404          mov [esp+0x4],eax
00000E58  8B4508            mov eax,[ebp+0x8]
00000E5B  890424            mov [esp],eax
00000E5E  E811030000        call 0x1174
00000E63  8B45E8            mov eax,[ebp-0x18]
00000E66  85C0              test eax,eax
00000E68  740B              jz 0xe75
00000E6A  8B45E8            mov eax,[ebp-0x18]
00000E6D  83E801            sub eax,byte +0x1
00000E70  8945E8            mov [ebp-0x18],eax
00000E73  EB8C              jmp short 0xe01
00000E75  8B5DFC            mov ebx,[ebp-0x4]
00000E78  C9                leave
00000E79  C3                ret
00000E7A  55                push ebp
00000E7B  89E5              mov ebp,esp
00000E7D  8B4508            mov eax,[ebp+0x8]
00000E80  5D                pop ebp
00000E81  C3                ret
00000E82  55                push ebp
00000E83  89E5              mov ebp,esp
00000E85  83EC18            sub esp,byte +0x18
00000E88  8B4508            mov eax,[ebp+0x8]
00000E8B  8B5004            mov edx,[eax+0x4]
00000E8E  8B4508            mov eax,[ebp+0x8]
00000E91  8B4008            mov eax,[eax+0x8]
00000E94  39C2              cmp edx,eax
00000E96  742D              jz 0xec5
00000E98  8B4508            mov eax,[ebp+0x8]
00000E9B  8B5004            mov edx,[eax+0x4]
00000E9E  8B4508            mov eax,[ebp+0x8]
00000EA1  8B4D0C            mov ecx,[ebp+0xc]
00000EA4  894C2408          mov [esp+0x8],ecx
00000EA8  89542404          mov [esp+0x4],edx
00000EAC  890424            mov [esp],eax
00000EAF  E8B3040000        call 0x1367
00000EB4  8B4508            mov eax,[ebp+0x8]
00000EB7  8B4004            mov eax,[eax+0x4]
00000EBA  8D5004            lea edx,[eax+0x4]
00000EBD  8B4508            mov eax,[ebp+0x8]
00000EC0  895004            mov [eax+0x4],edx
00000EC3  EB12              jmp short 0xed7
00000EC5  8B450C            mov eax,[ebp+0xc]
00000EC8  89442404          mov [esp+0x4],eax
00000ECC  8B4508            mov eax,[ebp+0x8]
00000ECF  890424            mov [esp],eax
00000ED2  E8B9040000        call 0x1390
00000ED7  C9                leave
00000ED8  C3                ret
00000ED9  55                push ebp
00000EDA  89E5              mov ebp,esp
00000EDC  56                push esi
00000EDD  53                push ebx
00000EDE  83EC30            sub esp,byte +0x30
00000EE1  C745F001000000    mov dword [ebp-0x10],0x1
00000EE8  8D45F4            lea eax,[ebp-0xc]
00000EEB  8D55F0            lea edx,[ebp-0x10]
00000EEE  89542408          mov [esp+0x8],edx
00000EF2  8D550C            lea edx,[ebp+0xc]
00000EF5  89542404          mov [esp+0x4],edx
00000EF9  890424            mov [esp],eax
00000EFC  E84D060000        call 0x154e
00000F01  83EC04            sub esp,byte +0x4
00000F04  8D45F4            lea eax,[ebp-0xc]
00000F07  890424            mov [esp],eax
00000F0A  E85B020000        call 0x116a
00000F0F  890424            mov [esp],eax
00000F12  E83AFDFFFF        call 0xc51
00000F17  8B00              mov eax,[eax]
00000F19  8945EC            mov [ebp-0x14],eax
00000F1C  8D45EC            lea eax,[ebp-0x14]
00000F1F  890424            mov [esp],eax
00000F22  E82AFDFFFF        call 0xc51
00000F27  8B18              mov ebx,[eax]
00000F29  8D4508            lea eax,[ebp+0x8]
00000F2C  89442404          mov [esp+0x4],eax
00000F30  8D450C            lea eax,[ebp+0xc]
00000F33  890424            mov [esp],eax
00000F36  E8CC010000        call 0x1107
00000F3B  83E801            sub eax,byte +0x1
00000F3E  89F1              mov ecx,esi
00000F40  884C2410          mov [esp+0x10],cl
00000F44  895C240C          mov [esp+0xc],ebx
00000F48  C744240800000000  mov dword [esp+0x8],0x0
00000F50  89442404          mov [esp+0x4],eax
00000F54  8B4508            mov eax,[ebp+0x8]
00000F57  890424            mov [esp],eax
00000F5A  E822060000        call 0x1581
00000F5F  8D65F8            lea esp,[ebp-0x8]
00000F62  5B                pop ebx
00000F63  5E                pop esi
00000F64  5D                pop ebp
00000F65  C3                ret
00000F66  55                push ebp
00000F67  89E5              mov ebp,esp
00000F69  83EC28            sub esp,byte +0x28
00000F6C  8D45F4            lea eax,[ebp-0xc]
00000F6F  8B5508            mov edx,[ebp+0x8]
00000F72  89542404          mov [esp+0x4],edx
00000F76  890424            mov [esp],eax
00000F79  E83E070000        call 0x16bc
00000F7E  83EC04            sub esp,byte +0x4
00000F81  8D45F4            lea eax,[ebp-0xc]
00000F84  890424            mov [esp],eax
00000F87  E858070000        call 0x16e4
00000F8C  C9                leave
00000F8D  C3                ret
00000F8E  55                push ebp
00000F8F  89E5              mov ebp,esp
00000F91  53                push ebx
00000F92  83EC14            sub esp,byte +0x14
00000F95  8D4508            lea eax,[ebp+0x8]
00000F98  89442404          mov [esp+0x4],eax
00000F9C  8D450C            lea eax,[ebp+0xc]
00000F9F  890424            mov [esp],eax
00000FA2  E860010000        call 0x1107
00000FA7  83F801            cmp eax,byte +0x1
00000FAA  0F9FC0            setg al
00000FAD  84C0              test al,al
00000FAF  7428              jz 0xfd9
00000FB1  8D450C            lea eax,[ebp+0xc]
00000FB4  890424            mov [esp],eax
00000FB7  E832070000        call 0x16ee
00000FBC  885C240C          mov [esp+0xc],bl
00000FC0  8B450C            mov eax,[ebp+0xc]
00000FC3  89442408          mov [esp+0x8],eax
00000FC7  8B450C            mov eax,[ebp+0xc]
00000FCA  89442404          mov [esp+0x4],eax
00000FCE  8B4508            mov eax,[ebp+0x8]
00000FD1  890424            mov [esp],eax
00000FD4  E82A070000        call 0x1703
00000FD9  83C414            add esp,byte +0x14
00000FDC  5B                pop ebx
00000FDD  5D                pop ebp
00000FDE  C3                ret
00000FDF  90                nop
00000FE0  55                push ebp
00000FE1  89E5              mov ebp,esp
00000FE3  83EC18            sub esp,byte +0x18
00000FE6  8B4508            mov eax,[ebp+0x8]
00000FE9  8B4004            mov eax,[eax+0x4]
00000FEC  8D50FC            lea edx,[eax-0x4]
00000FEF  8B4508            mov eax,[ebp+0x8]
00000FF2  895004            mov [eax+0x4],edx
00000FF5  8B4508            mov eax,[ebp+0x8]
00000FF8  8B5004            mov edx,[eax+0x4]
00000FFB  8B4508            mov eax,[ebp+0x8]
00000FFE  89542404          mov [esp+0x4],edx
00001002  890424            mov [esp],eax
00001005  E884070000        call 0x178e
0000100A  C9                leave
0000100B  C3                ret
0000100C  55                push ebp
0000100D  89E5              mov ebp,esp
0000100F  83EC18            sub esp,byte +0x18
00001012  8B450C            mov eax,[ebp+0xc]
00001015  890424            mov [esp],eax
00001018  E834FCFFFF        call 0xc51
0000101D  89442404          mov [esp+0x4],eax
00001021  8B4508            mov eax,[ebp+0x8]
00001024  890424            mov [esp],eax
00001027  E884070000        call 0x17b0
0000102C  C9                leave
0000102D  C3                ret
0000102E  55                push ebp
0000102F  89E5              mov ebp,esp
00001031  83EC18            sub esp,byte +0x18
00001034  8B4508            mov eax,[ebp+0x8]
00001037  890424            mov [esp],eax
0000103A  E8D9070000        call 0x1818
0000103F  8B4508            mov eax,[ebp+0x8]
00001042  C70000000000      mov dword [eax],0x0
00001048  8B4508            mov eax,[ebp+0x8]
0000104B  C7400400000000    mov dword [eax+0x4],0x0
00001052  8B4508            mov eax,[ebp+0x8]
00001055  C7400800000000    mov dword [eax+0x8],0x0
0000105C  C9                leave
0000105D  C3                ret
0000105E  55                push ebp
0000105F  89E5              mov ebp,esp
00001061  83EC18            sub esp,byte +0x18
00001064  8B4508            mov eax,[ebp+0x8]
00001067  890424            mov [esp],eax
0000106A  E8BD070000        call 0x182c
0000106F  C9                leave
00001070  C3                ret
00001071  90                nop
00001072  55                push ebp
00001073  89E5              mov ebp,esp
00001075  83EC18            sub esp,byte +0x18
00001078  837D0C00          cmp dword [ebp+0xc],byte +0x0
0000107C  7419              jz 0x1097
0000107E  8B4508            mov eax,[ebp+0x8]
00001081  8B5510            mov edx,[ebp+0x10]
00001084  89542408          mov [esp+0x8],edx
00001088  8B550C            mov edx,[ebp+0xc]
0000108B  89542404          mov [esp+0x4],edx
0000108F  890424            mov [esp],eax
00001092  E89B070000        call 0x1832
00001097  C9                leave
00001098  C3                ret
00001099  55                push ebp
0000109A  89E5              mov ebp,esp
0000109C  83EC18            sub esp,byte +0x18
0000109F  8B450C            mov eax,[ebp+0xc]
000010A2  89442404          mov [esp+0x4],eax
000010A6  8B4508            mov eax,[ebp+0x8]
000010A9  890424            mov [esp],eax
000010AC  E894070000        call 0x1845
000010B1  C9                leave
000010B2  C3                ret
000010B3  55                push ebp
000010B4  89E5              mov ebp,esp
000010B6  8B4508            mov eax,[ebp+0x8]
000010B9  5D                pop ebp
000010BA  C3                ret
000010BB  90                nop
000010BC  55                push ebp
000010BD  89E5              mov ebp,esp
000010BF  83EC18            sub esp,byte +0x18
000010C2  8B450C            mov eax,[ebp+0xc]
000010C5  890424            mov [esp],eax
000010C8  E85DFCFFFF        call 0xd2a
000010CD  890424            mov [esp],eax
000010D0  E8DEFFFFFF        call 0x10b3
000010D5  8B5508            mov edx,[ebp+0x8]
000010D8  89442404          mov [esp+0x4],eax
000010DC  891424            mov [esp],edx
000010DF  E866070000        call 0x184a
000010E4  8B550C            mov edx,[ebp+0xc]
000010E7  8B4508            mov eax,[ebp+0x8]
000010EA  89542404          mov [esp+0x4],edx
000010EE  890424            mov [esp],eax
000010F1  E894070000        call 0x188a
000010F6  C9                leave
000010F7  C3                ret
000010F8  55                push ebp
000010F9  89E5              mov ebp,esp
000010FB  8B450C            mov eax,[ebp+0xc]
000010FE  8B10              mov edx,[eax]
00001100  8B4508            mov eax,[ebp+0x8]
00001103  8910              mov [eax],edx
00001105  5D                pop ebp
00001106  C3                ret
00001107  55                push ebp
00001108  89E5              mov ebp,esp
0000110A  53                push ebx
0000110B  83EC14            sub esp,byte +0x14
0000110E  8B4508            mov eax,[ebp+0x8]
00001111  890424            mov [esp],eax
00001114  E8BB070000        call 0x18d4
00001119  8B00              mov eax,[eax]
0000111B  89C3              mov ebx,eax
0000111D  8B450C            mov eax,[ebp+0xc]
00001120  890424            mov [esp],eax
00001123  E8AC070000        call 0x18d4
00001128  8B00              mov eax,[eax]
0000112A  29C3              sub ebx,eax
0000112C  89D8              mov eax,ebx
0000112E  C1F802            sar eax,byte 0x2
00001131  83C414            add esp,byte +0x14
00001134  5B                pop ebx
00001135  5D                pop ebp
00001136  C3                ret
00001137  90                nop
00001138  55                push ebp
00001139  89E5              mov ebp,esp
0000113B  83EC28            sub esp,byte +0x28
0000113E  8B450C            mov eax,[ebp+0xc]
00001141  8B10              mov edx,[eax]
00001143  8B4510            mov eax,[ebp+0x10]
00001146  8B00              mov eax,[eax]
00001148  C1E002            shl eax,byte 0x2
0000114B  01D0              add eax,edx
0000114D  8945F4            mov [ebp-0xc],eax
00001150  8D45F4            lea eax,[ebp-0xc]
00001153  89442404          mov [esp+0x4],eax
00001157  8B4508            mov eax,[ebp+0x8]
0000115A  890424            mov [esp],eax
0000115D  E896FFFFFF        call 0x10f8
00001162  8B4508            mov eax,[ebp+0x8]
00001165  C9                leave
00001166  C20400            ret 0x4
00001169  90                nop
0000116A  55                push ebp
0000116B  89E5              mov ebp,esp
0000116D  8B4508            mov eax,[ebp+0x8]
00001170  8B00              mov eax,[eax]
00001172  5D                pop ebp
00001173  C3                ret
00001174  55                push ebp
00001175  89E5              mov ebp,esp
00001177  57                push edi
00001178  56                push esi
00001179  53                push ebx
0000117A  83EC4C            sub esp,byte +0x4c
0000117D  8B450C            mov eax,[ebp+0xc]
00001180  8945E4            mov [ebp-0x1c],eax
00001183  8B450C            mov eax,[ebp+0xc]
00001186  8945D4            mov [ebp-0x2c],eax
00001189  E9E6000000        jmp 0x1274
0000118E  8B45D4            mov eax,[ebp-0x2c]
00001191  83C001            add eax,byte +0x1
00001194  01C0              add eax,eax
00001196  8945D4            mov [ebp-0x2c],eax
00001199  8B45D4            mov eax,[ebp-0x2c]
0000119C  83E801            sub eax,byte +0x1
0000119F  8945DC            mov [ebp-0x24],eax
000011A2  8D45E0            lea eax,[ebp-0x20]
000011A5  8D55DC            lea edx,[ebp-0x24]
000011A8  89542408          mov [esp+0x8],edx
000011AC  8D7D08            lea edi,[ebp+0x8]
000011AF  897C2404          mov [esp+0x4],edi
000011B3  890424            mov [esp],eax
000011B6  E87DFFFFFF        call 0x1138
000011BB  83EC04            sub esp,byte +0x4
000011BE  8D45E0            lea eax,[ebp-0x20]
000011C1  890424            mov [esp],eax
000011C4  E8A1FFFFFF        call 0x116a
000011C9  89C3              mov ebx,eax
000011CB  8D45D8            lea eax,[ebp-0x28]
000011CE  8D55D4            lea edx,[ebp-0x2c]
000011D1  89542408          mov [esp+0x8],edx
000011D5  8D4D08            lea ecx,[ebp+0x8]
000011D8  894C2404          mov [esp+0x4],ecx
000011DC  890424            mov [esp],eax
000011DF  E854FFFFFF        call 0x1138
000011E4  83EC04            sub esp,byte +0x4
000011E7  8D45D8            lea eax,[ebp-0x28]
000011EA  890424            mov [esp],eax
000011ED  E878FFFFFF        call 0x116a
000011F2  895C2408          mov [esp+0x8],ebx
000011F6  89442404          mov [esp+0x4],eax
000011FA  8D4518            lea eax,[ebp+0x18]
000011FD  890424            mov [esp],eax
00001200  E8D7060000        call 0x18dc
00001205  84C0              test al,al
00001207  7409              jz 0x1212
00001209  8B45D4            mov eax,[ebp-0x2c]
0000120C  83E801            sub eax,byte +0x1
0000120F  8945D4            mov [ebp-0x2c],eax
00001212  8D45E0            lea eax,[ebp-0x20]
00001215  8D550C            lea edx,[ebp+0xc]
00001218  89542408          mov [esp+0x8],edx
0000121C  8D7D08            lea edi,[ebp+0x8]
0000121F  897C2404          mov [esp+0x4],edi
00001223  890424            mov [esp],eax
00001226  E80DFFFFFF        call 0x1138
0000122B  83EC04            sub esp,byte +0x4
0000122E  8D45E0            lea eax,[ebp-0x20]
00001231  890424            mov [esp],eax
00001234  E831FFFFFF        call 0x116a
00001239  89C3              mov ebx,eax
0000123B  8D45DC            lea eax,[ebp-0x24]
0000123E  8D55D4            lea edx,[ebp-0x2c]
00001241  89542408          mov [esp+0x8],edx
00001245  8D4D08            lea ecx,[ebp+0x8]
00001248  894C2404          mov [esp+0x4],ecx
0000124C  890424            mov [esp],eax
0000124F  E8E4FEFFFF        call 0x1138
00001254  83EC04            sub esp,byte +0x4
00001257  8D45DC            lea eax,[ebp-0x24]
0000125A  890424            mov [esp],eax
0000125D  E808FFFFFF        call 0x116a
00001262  890424            mov [esp],eax
00001265  E8E7F9FFFF        call 0xc51
0000126A  8B00              mov eax,[eax]
0000126C  8903              mov [ebx],eax
0000126E  8B45D4            mov eax,[ebp-0x2c]
00001271  89450C            mov [ebp+0xc],eax
00001274  8B4510            mov eax,[ebp+0x10]
00001277  83E801            sub eax,byte +0x1
0000127A  89C2              mov edx,eax
0000127C  C1EA1F            shr edx,byte 0x1f
0000127F  01D0              add eax,edx
00001281  D1F8              sar eax,1
00001283  89C2              mov edx,eax
00001285  8B45D4            mov eax,[ebp-0x2c]
00001288  39C2              cmp edx,eax
0000128A  0F8FFEFEFFFF      jg near 0x118e
00001290  8B4510            mov eax,[ebp+0x10]
00001293  83E001            and eax,byte +0x1
00001296  85C0              test eax,eax
00001298  0F8591000000      jnz near 0x132f
0000129E  8B4510            mov eax,[ebp+0x10]
000012A1  83E802            sub eax,byte +0x2
000012A4  89C2              mov edx,eax
000012A6  C1EA1F            shr edx,byte 0x1f
000012A9  01D0              add eax,edx
000012AB  D1F8              sar eax,1
000012AD  89C2              mov edx,eax
000012AF  8B45D4            mov eax,[ebp-0x2c]
000012B2  39C2              cmp edx,eax
000012B4  7579              jnz 0x132f
000012B6  8B45D4            mov eax,[ebp-0x2c]
000012B9  83C001            add eax,byte +0x1
000012BC  01C0              add eax,eax
000012BE  8945D4            mov [ebp-0x2c],eax
000012C1  8D45E0            lea eax,[ebp-0x20]
000012C4  8D550C            lea edx,[ebp+0xc]
000012C7  89542408          mov [esp+0x8],edx
000012CB  8D7D08            lea edi,[ebp+0x8]
000012CE  897C2404          mov [esp+0x4],edi
000012D2  890424            mov [esp],eax
000012D5  E85EFEFFFF        call 0x1138
000012DA  83EC04            sub esp,byte +0x4
000012DD  8D45E0            lea eax,[ebp-0x20]
000012E0  890424            mov [esp],eax
000012E3  E882FEFFFF        call 0x116a
000012E8  89C3              mov ebx,eax
000012EA  8B45D4            mov eax,[ebp-0x2c]
000012ED  83E801            sub eax,byte +0x1
000012F0  8945D8            mov [ebp-0x28],eax
000012F3  8D45DC            lea eax,[ebp-0x24]
000012F6  8D55D8            lea edx,[ebp-0x28]
000012F9  89542408          mov [esp+0x8],edx
000012FD  8D4D08            lea ecx,[ebp+0x8]
00001300  894C2404          mov [esp+0x4],ecx
00001304  890424            mov [esp],eax
00001307  E82CFEFFFF        call 0x1138
0000130C  83EC04            sub esp,byte +0x4
0000130F  8D45DC            lea eax,[ebp-0x24]
00001312  890424            mov [esp],eax
00001315  E850FEFFFF        call 0x116a
0000131A  890424            mov [esp],eax
0000131D  E82FF9FFFF        call 0xc51
00001322  8B00              mov eax,[eax]
00001324  8903              mov [ebx],eax
00001326  8B45D4            mov eax,[ebp-0x2c]
00001329  83E801            sub eax,byte +0x1
0000132C  89450C            mov [ebp+0xc],eax
0000132F  8D4514            lea eax,[ebp+0x14]
00001332  890424            mov [esp],eax
00001335  E817F9FFFF        call 0xc51
0000133A  8B10              mov edx,[eax]
0000133C  8B450C            mov eax,[ebp+0xc]
0000133F  89F1              mov ecx,esi
00001341  884C2410          mov [esp+0x10],cl
00001345  8954240C          mov [esp+0xc],edx
00001349  8B55E4            mov edx,[ebp-0x1c]
0000134C  89542408          mov [esp+0x8],edx
00001350  89442404          mov [esp+0x4],eax
00001354  8B4508            mov eax,[ebp+0x8]
00001357  890424            mov [esp],eax
0000135A  E822020000        call 0x1581
0000135F  8D65F4            lea esp,[ebp-0xc]
00001362  5B                pop ebx
00001363  5E                pop esi
00001364  5F                pop edi
00001365  5D                pop ebp
00001366  C3                ret
00001367  55                push ebp
00001368  89E5              mov ebp,esp
0000136A  83EC18            sub esp,byte +0x18
0000136D  8B4510            mov eax,[ebp+0x10]
00001370  890424            mov [esp],eax
00001373  E802FBFFFF        call 0xe7a
00001378  89442408          mov [esp+0x8],eax
0000137C  8B450C            mov eax,[ebp+0xc]
0000137F  89442404          mov [esp+0x4],eax
00001383  8B4508            mov eax,[ebp+0x8]
00001386  890424            mov [esp],eax
00001389  E862050000        call 0x18f0
0000138E  C9                leave
0000138F  C3                ret
00001390  55                push ebp
00001391  89E5              mov ebp,esp
00001393  53                push ebx
00001394  83EC24            sub esp,byte +0x24
00001397  C74424086CA00408  mov dword [esp+0x8],0x804a06c
0000139F  C744240401000000  mov dword [esp+0x4],0x1
000013A7  8B4508            mov eax,[ebp+0x8]
000013AA  890424            mov [esp],eax
000013AD  E868050000        call 0x191a
000013B2  8945F0            mov [ebp-0x10],eax
000013B5  8B4508            mov eax,[ebp+0x8]
000013B8  8B55F0            mov edx,[ebp-0x10]
000013BB  89542404          mov [esp+0x4],edx
000013BF  890424            mov [esp],eax
000013C2  E8F7050000        call 0x19be
000013C7  8945F4            mov [ebp-0xc],eax
000013CA  8B45F4            mov eax,[ebp-0xc]
000013CD  8945EC            mov [ebp-0x14],eax
000013D0  8B450C            mov eax,[ebp+0xc]
000013D3  890424            mov [esp],eax
000013D6  E89FFAFFFF        call 0xe7a
000013DB  89C3              mov ebx,eax
000013DD  8B4508            mov eax,[ebp+0x8]
000013E0  890424            mov [esp],eax
000013E3  E806060000        call 0x19ee
000013E8  8D148500000000    lea edx,[eax*4+0x0]
000013EF  8B45F4            mov eax,[ebp-0xc]
000013F2  01C2              add edx,eax
000013F4  8B4508            mov eax,[ebp+0x8]
000013F7  895C2408          mov [esp+0x8],ebx
000013FB  89542404          mov [esp+0x4],edx
000013FF  890424            mov [esp],eax
00001402  E860FFFFFF        call 0x1367
00001407  C745EC00000000    mov dword [ebp-0x14],0x0
0000140E  8B4508            mov eax,[ebp+0x8]
00001411  890424            mov [esp],eax
00001414  E811F9FFFF        call 0xd2a
00001419  8B5508            mov edx,[ebp+0x8]
0000141C  8B4A04            mov ecx,[edx+0x4]
0000141F  8B5508            mov edx,[ebp+0x8]
00001422  8B12              mov edx,[edx]
00001424  8944240C          mov [esp+0xc],eax
00001428  8B45F4            mov eax,[ebp-0xc]
0000142B  89442408          mov [esp+0x8],eax
0000142F  894C2404          mov [esp+0x4],ecx
00001433  891424            mov [esp],edx
00001436  E8CC050000        call 0x1a07
0000143B  8945EC            mov [ebp-0x14],eax
0000143E  8345EC04          add dword [ebp-0x14],byte +0x4
00001442  8B4508            mov eax,[ebp+0x8]
00001445  890424            mov [esp],eax
00001448  E8DDF8FFFF        call 0xd2a
0000144D  8B5508            mov edx,[ebp+0x8]
00001450  8B4A04            mov ecx,[edx+0x4]
00001453  8B5508            mov edx,[ebp+0x8]
00001456  8B12              mov edx,[edx]
00001458  89442408          mov [esp+0x8],eax
0000145C  894C2404          mov [esp+0x4],ecx
00001460  891424            mov [esp],edx
00001463  E8CAF8FFFF        call 0xd32
00001468  8B4508            mov eax,[ebp+0x8]
0000146B  8B4008            mov eax,[eax+0x8]
0000146E  89C2              mov edx,eax
00001470  8B4508            mov eax,[ebp+0x8]
00001473  8B00              mov eax,[eax]
00001475  29C2              sub edx,eax
00001477  89D0              mov eax,edx
00001479  C1F802            sar eax,byte 0x2
0000147C  89C1              mov ecx,eax
0000147E  8B4508            mov eax,[ebp+0x8]
00001481  8B10              mov edx,[eax]
00001483  8B4508            mov eax,[ebp+0x8]
00001486  894C2408          mov [esp+0x8],ecx
0000148A  89542404          mov [esp+0x4],edx
0000148E  890424            mov [esp],eax
00001491  E8DCFBFFFF        call 0x1072
00001496  8B4508            mov eax,[ebp+0x8]
00001499  8B55F4            mov edx,[ebp-0xc]
0000149C  8910              mov [eax],edx
0000149E  8B4508            mov eax,[ebp+0x8]
000014A1  8B55EC            mov edx,[ebp-0x14]
000014A4  895004            mov [eax+0x4],edx
000014A7  8B45F0            mov eax,[ebp-0x10]
000014AA  8D148500000000    lea edx,[eax*4+0x0]
000014B1  8B45F4            mov eax,[ebp-0xc]
000014B4  01C2              add edx,eax
000014B6  8B4508            mov eax,[ebp+0x8]
000014B9  895008            mov [eax+0x8],edx
000014BC  E986000000        jmp 0x1547
000014C1  890424            mov [esp],eax
000014C4  E877F2FFFF        call 0x740
000014C9  837DEC00          cmp dword [ebp-0x14],byte +0x0
000014CD  7528              jnz 0x14f7
000014CF  8B4508            mov eax,[ebp+0x8]
000014D2  890424            mov [esp],eax
000014D5  E814050000        call 0x19ee
000014DA  8D148500000000    lea edx,[eax*4+0x0]
000014E1  8B45F4            mov eax,[ebp-0xc]
000014E4  01C2              add edx,eax
000014E6  8B4508            mov eax,[ebp+0x8]
000014E9  89542404          mov [esp+0x4],edx
000014ED  890424            mov [esp],eax
000014F0  E899020000        call 0x178e
000014F5  EB21              jmp short 0x1518
000014F7  8B4508            mov eax,[ebp+0x8]
000014FA  890424            mov [esp],eax
000014FD  E828F8FFFF        call 0xd2a
00001502  89442408          mov [esp+0x8],eax
00001506  8B45EC            mov eax,[ebp-0x14]
00001509  89442404          mov [esp+0x4],eax
0000150D  8B45F4            mov eax,[ebp-0xc]
00001510  890424            mov [esp],eax
00001513  E81AF8FFFF        call 0xd32
00001518  8B4508            mov eax,[ebp+0x8]
0000151B  8B55F0            mov edx,[ebp-0x10]
0000151E  89542408          mov [esp+0x8],edx
00001522  8B55F4            mov edx,[ebp-0xc]
00001525  89542404          mov [esp+0x4],edx
00001529  890424            mov [esp],eax
0000152C  E841FBFFFF        call 0x1072
00001531  E86AF1FFFF        call 0x6a0
00001536  89C3              mov ebx,eax
00001538  E8E3F1FFFF        call 0x720
0000153D  89D8              mov eax,ebx
0000153F  890424            mov [esp],eax
00001542  E819F2FFFF        call 0x760
00001547  83C424            add esp,byte +0x24
0000154A  5B                pop ebx
0000154B  5D                pop ebp
0000154C  C3                ret
0000154D  90                nop
0000154E  55                push ebp
0000154F  89E5              mov ebp,esp
00001551  83EC28            sub esp,byte +0x28
00001554  8B450C            mov eax,[ebp+0xc]
00001557  8B10              mov edx,[eax]
00001559  8B4510            mov eax,[ebp+0x10]
0000155C  8B00              mov eax,[eax]
0000155E  C1E002            shl eax,byte 0x2
00001561  F7D8              neg eax
00001563  01D0              add eax,edx
00001565  8945F4            mov [ebp-0xc],eax
00001568  8D45F4            lea eax,[ebp-0xc]
0000156B  89442404          mov [esp+0x4],eax
0000156F  8B4508            mov eax,[ebp+0x8]
00001572  890424            mov [esp],eax
00001575  E87EFBFFFF        call 0x10f8
0000157A  8B4508            mov eax,[ebp+0x8]
0000157D  C9                leave
0000157E  C20400            ret 0x4
00001581  55                push ebp
00001582  89E5              mov ebp,esp
00001584  57                push edi
00001585  56                push esi
00001586  53                push ebx
00001587  83EC2C            sub esp,byte +0x2c
0000158A  8B450C            mov eax,[ebp+0xc]
0000158D  83E801            sub eax,byte +0x1
00001590  89C2              mov edx,eax
00001592  C1EA1F            shr edx,byte 0x1f
00001595  01D0              add eax,edx
00001597  D1F8              sar eax,1
00001599  8945D8            mov [ebp-0x28],eax
0000159C  EB74              jmp short 0x1612
0000159E  8D45E4            lea eax,[ebp-0x1c]
000015A1  8D550C            lea edx,[ebp+0xc]
000015A4  89542408          mov [esp+0x8],edx
000015A8  8D4D08            lea ecx,[ebp+0x8]
000015AB  894C2404          mov [esp+0x4],ecx
000015AF  890424            mov [esp],eax
000015B2  E881FBFFFF        call 0x1138
000015B7  83EC04            sub esp,byte +0x4
000015BA  8D45E4            lea eax,[ebp-0x1c]
000015BD  890424            mov [esp],eax
000015C0  E8A5FBFFFF        call 0x116a
000015C5  89C3              mov ebx,eax
000015C7  8D45E0            lea eax,[ebp-0x20]
000015CA  8D55D8            lea edx,[ebp-0x28]
000015CD  89542408          mov [esp+0x8],edx
000015D1  8D7508            lea esi,[ebp+0x8]
000015D4  89742404          mov [esp+0x4],esi
000015D8  890424            mov [esp],eax
000015DB  E858FBFFFF        call 0x1138
000015E0  83EC04            sub esp,byte +0x4
000015E3  8D45E0            lea eax,[ebp-0x20]
000015E6  890424            mov [esp],eax
000015E9  E87CFBFFFF        call 0x116a
000015EE  890424            mov [esp],eax
000015F1  E85BF6FFFF        call 0xc51
000015F6  8B00              mov eax,[eax]
000015F8  8903              mov [ebx],eax
000015FA  8B45D8            mov eax,[ebp-0x28]
000015FD  89450C            mov [ebp+0xc],eax
00001600  8B450C            mov eax,[ebp+0xc]
00001603  83E801            sub eax,byte +0x1
00001606  89C2              mov edx,eax
00001608  C1EA1F            shr edx,byte 0x1f
0000160B  01D0              add eax,edx
0000160D  D1F8              sar eax,1
0000160F  8945D8            mov [ebp-0x28],eax
00001612  BB00000000        mov ebx,0x0
00001617  8B450C            mov eax,[ebp+0xc]
0000161A  3B4510            cmp eax,[ebp+0x10]
0000161D  7E4D              jng 0x166c
0000161F  8D45DC            lea eax,[ebp-0x24]
00001622  8D55D8            lea edx,[ebp-0x28]
00001625  89542408          mov [esp+0x8],edx
00001629  8D7D08            lea edi,[ebp+0x8]
0000162C  897C2404          mov [esp+0x4],edi
00001630  890424            mov [esp],eax
00001633  E800FBFFFF        call 0x1138
00001638  83EC04            sub esp,byte +0x4
0000163B  BB01000000        mov ebx,0x1
00001640  8D45DC            lea eax,[ebp-0x24]
00001643  890424            mov [esp],eax
00001646  E81FFBFFFF        call 0x116a
0000164B  8D5514            lea edx,[ebp+0x14]
0000164E  89542408          mov [esp+0x8],edx
00001652  89442404          mov [esp+0x4],eax
00001656  8D4518            lea eax,[ebp+0x18]
00001659  890424            mov [esp],eax
0000165C  E87B020000        call 0x18dc
00001661  84C0              test al,al
00001663  7407              jz 0x166c
00001665  B801000000        mov eax,0x1
0000166A  EB05              jmp short 0x1671
0000166C  B800000000        mov eax,0x0
00001671  84DB              test bl,bl
00001673  84C0              test al,al
00001675  0F8523FFFFFF      jnz near 0x159e
0000167B  8D45E4            lea eax,[ebp-0x1c]
0000167E  8D550C            lea edx,[ebp+0xc]
00001681  89542408          mov [esp+0x8],edx
00001685  8D4D08            lea ecx,[ebp+0x8]
00001688  894C2404          mov [esp+0x4],ecx
0000168C  890424            mov [esp],eax
0000168F  E8A4FAFFFF        call 0x1138
00001694  83EC04            sub esp,byte +0x4
00001697  8D45E4            lea eax,[ebp-0x1c]
0000169A  890424            mov [esp],eax
0000169D  E8C8FAFFFF        call 0x116a
000016A2  89C3              mov ebx,eax
000016A4  8D4514            lea eax,[ebp+0x14]
000016A7  890424            mov [esp],eax
000016AA  E8A2F5FFFF        call 0xc51
000016AF  8B00              mov eax,[eax]
000016B1  8903              mov [ebx],eax
000016B3  8D65F4            lea esp,[ebp-0xc]
000016B6  5B                pop ebx
000016B7  5E                pop esi
000016B8  5F                pop edi
000016B9  5D                pop ebp
000016BA  C3                ret
000016BB  90                nop
000016BC  55                push ebp
000016BD  89E5              mov ebp,esp
000016BF  83EC28            sub esp,byte +0x28
000016C2  8B450C            mov eax,[ebp+0xc]
000016C5  8B00              mov eax,[eax]
000016C7  8945F4            mov [ebp-0xc],eax
000016CA  8D45F4            lea eax,[ebp-0xc]
000016CD  89442404          mov [esp+0x4],eax
000016D1  8B4508            mov eax,[ebp+0x8]
000016D4  890424            mov [esp],eax
000016D7  E87E030000        call 0x1a5a
000016DC  8B4508            mov eax,[ebp+0x8]
000016DF  C9                leave
000016E0  C20400            ret 0x4
000016E3  90                nop
000016E4  55                push ebp
000016E5  89E5              mov ebp,esp
000016E7  8B4508            mov eax,[ebp+0x8]
000016EA  8B00              mov eax,[eax]
000016EC  5D                pop ebp
000016ED  C3                ret
000016EE  55                push ebp
000016EF  89E5              mov ebp,esp
000016F1  8B4508            mov eax,[ebp+0x8]
000016F4  8B00              mov eax,[eax]
000016F6  8D50FC            lea edx,[eax-0x4]
000016F9  8B4508            mov eax,[ebp+0x8]
000016FC  8910              mov [eax],edx
000016FE  8B4508            mov eax,[ebp+0x8]
00001701  5D                pop ebp
00001702  C3                ret
00001703  55                push ebp
00001704  89E5              mov ebp,esp
00001706  56                push esi
00001707  53                push ebx
00001708  83EC30            sub esp,byte +0x30
0000170B  8D4510            lea eax,[ebp+0x10]
0000170E  890424            mov [esp],eax
00001711  E854FAFFFF        call 0x116a
00001716  890424            mov [esp],eax
00001719  E833F5FFFF        call 0xc51
0000171E  8B00              mov eax,[eax]
00001720  8945F4            mov [ebp-0xc],eax
00001723  8D4510            lea eax,[ebp+0x10]
00001726  890424            mov [esp],eax
00001729  E83CFAFFFF        call 0x116a
0000172E  89C3              mov ebx,eax
00001730  8D4508            lea eax,[ebp+0x8]
00001733  890424            mov [esp],eax
00001736  E82FFAFFFF        call 0x116a
0000173B  890424            mov [esp],eax
0000173E  E80EF5FFFF        call 0xc51
00001743  8B00              mov eax,[eax]
00001745  8903              mov [ebx],eax
00001747  8D45F4            lea eax,[ebp-0xc]
0000174A  890424            mov [esp],eax
0000174D  E8FFF4FFFF        call 0xc51
00001752  8B18              mov ebx,[eax]
00001754  8D4508            lea eax,[ebp+0x8]
00001757  89442404          mov [esp+0x4],eax
0000175B  8D450C            lea eax,[ebp+0xc]
0000175E  890424            mov [esp],eax
00001761  E8A1F9FFFF        call 0x1107
00001766  89F2              mov edx,esi
00001768  88542410          mov [esp+0x10],dl
0000176C  895C240C          mov [esp+0xc],ebx
00001770  89442408          mov [esp+0x8],eax
00001774  C744240400000000  mov dword [esp+0x4],0x0
0000177C  8B4508            mov eax,[ebp+0x8]
0000177F  890424            mov [esp],eax
00001782  E8EDF9FFFF        call 0x1174
00001787  83C430            add esp,byte +0x30
0000178A  5B                pop ebx
0000178B  5E                pop esi
0000178C  5D                pop ebp
0000178D  C3                ret
0000178E  55                push ebp
0000178F  89E5              mov ebp,esp
00001791  83EC18            sub esp,byte +0x18
00001794  8B450C            mov eax,[ebp+0xc]
00001797  89442404          mov [esp+0x4],eax
0000179B  8B4508            mov eax,[ebp+0x8]
0000179E  890424            mov [esp],eax
000017A1  E8C3020000        call 0x1a69
000017A6  C9                leave
000017A7  C3                ret
000017A8  55                push ebp
000017A9  89E5              mov ebp,esp
000017AB  8B4508            mov eax,[ebp+0x8]
000017AE  5D                pop ebp
000017AF  C3                ret
000017B0  55                push ebp
000017B1  89E5              mov ebp,esp
000017B3  83EC18            sub esp,byte +0x18
000017B6  8B4508            mov eax,[ebp+0x8]
000017B9  8B5004            mov edx,[eax+0x4]
000017BC  8B4508            mov eax,[ebp+0x8]
000017BF  8B4008            mov eax,[eax+0x8]
000017C2  39C2              cmp edx,eax
000017C4  7435              jz 0x17fb
000017C6  8B450C            mov eax,[ebp+0xc]
000017C9  890424            mov [esp],eax
000017CC  E8D7FFFFFF        call 0x17a8
000017D1  8B5508            mov edx,[ebp+0x8]
000017D4  8B4A04            mov ecx,[edx+0x4]
000017D7  8B5508            mov edx,[ebp+0x8]
000017DA  89442408          mov [esp+0x8],eax
000017DE  894C2404          mov [esp+0x4],ecx
000017E2  891424            mov [esp],edx
000017E5  E899020000        call 0x1a83
000017EA  8B4508            mov eax,[ebp+0x8]
000017ED  8B4004            mov eax,[eax+0x4]
000017F0  8D5004            lea edx,[eax+0x4]
000017F3  8B4508            mov eax,[ebp+0x8]
000017F6  895004            mov [eax+0x4],edx
000017F9  EB1A              jmp short 0x1815
000017FB  8B450C            mov eax,[ebp+0xc]
000017FE  890424            mov [esp],eax
00001801  E8A2FFFFFF        call 0x17a8
00001806  89442404          mov [esp+0x4],eax
0000180A  8B4508            mov eax,[ebp+0x8]
0000180D  890424            mov [esp],eax
00001810  E897020000        call 0x1aac
00001815  C9                leave
00001816  C3                ret
00001817  90                nop
00001818  55                push ebp
00001819  89E5              mov ebp,esp
0000181B  83EC18            sub esp,byte +0x18
0000181E  8B4508            mov eax,[ebp+0x8]
00001821  890424            mov [esp],eax
00001824  E841040000        call 0x1c6a
00001829  C9                leave
0000182A  C3                ret
0000182B  90                nop
0000182C  55                push ebp
0000182D  89E5              mov ebp,esp
0000182F  5D                pop ebp
00001830  C3                ret
00001831  90                nop
00001832  55                push ebp
00001833  89E5              mov ebp,esp
00001835  83EC18            sub esp,byte +0x18
00001838  8B450C            mov eax,[ebp+0xc]
0000183B  890424            mov [esp],eax
0000183E  E84DEEFFFF        call 0x690
00001843  C9                leave
00001844  C3                ret
00001845  55                push ebp
00001846  89E5              mov ebp,esp
00001848  5D                pop ebp
00001849  C3                ret
0000184A  55                push ebp
0000184B  89E5              mov ebp,esp
0000184D  83EC18            sub esp,byte +0x18
00001850  8B450C            mov eax,[ebp+0xc]
00001853  890424            mov [esp],eax
00001856  E858F8FFFF        call 0x10b3
0000185B  89442404          mov [esp+0x4],eax
0000185F  8B4508            mov eax,[ebp+0x8]
00001862  890424            mov [esp],eax
00001865  E806040000        call 0x1c70
0000186A  8B4508            mov eax,[ebp+0x8]
0000186D  C70000000000      mov dword [eax],0x0
00001873  8B4508            mov eax,[ebp+0x8]
00001876  C7400400000000    mov dword [eax+0x4],0x0
0000187D  8B4508            mov eax,[ebp+0x8]
00001880  C7400800000000    mov dword [eax+0x8],0x0
00001887  C9                leave
00001888  C3                ret
00001889  90                nop
0000188A  55                push ebp
0000188B  89E5              mov ebp,esp
0000188D  83EC18            sub esp,byte +0x18
00001890  8B550C            mov edx,[ebp+0xc]
00001893  8B4508            mov eax,[ebp+0x8]
00001896  89542404          mov [esp+0x4],edx
0000189A  890424            mov [esp],eax
0000189D  E8F0030000        call 0x1c92
000018A2  8B450C            mov eax,[ebp+0xc]
000018A5  8D5004            lea edx,[eax+0x4]
000018A8  8B4508            mov eax,[ebp+0x8]
000018AB  83C004            add eax,byte +0x4
000018AE  89542404          mov [esp+0x4],edx
000018B2  890424            mov [esp],eax
000018B5  E8D8030000        call 0x1c92
000018BA  8B450C            mov eax,[ebp+0xc]
000018BD  8D5008            lea edx,[eax+0x8]
000018C0  8B4508            mov eax,[ebp+0x8]
000018C3  83C008            add eax,byte +0x8
000018C6  89542404          mov [esp+0x4],edx
000018CA  890424            mov [esp],eax
000018CD  E8C0030000        call 0x1c92
000018D2  C9                leave
000018D3  C3                ret
000018D4  55                push ebp
000018D5  89E5              mov ebp,esp
000018D7  8B4508            mov eax,[ebp+0x8]
000018DA  5D                pop ebp
000018DB  C3                ret
000018DC  55                push ebp
000018DD  89E5              mov ebp,esp
000018DF  8B450C            mov eax,[ebp+0xc]
000018E2  8B10              mov edx,[eax]
000018E4  8B4510            mov eax,[ebp+0x10]
000018E7  8B00              mov eax,[eax]
000018E9  39C2              cmp edx,eax
000018EB  0F9CC0            setl al
000018EE  5D                pop ebp
000018EF  C3                ret
000018F0  55                push ebp
000018F1  89E5              mov ebp,esp
000018F3  83EC18            sub esp,byte +0x18
000018F6  8B4510            mov eax,[ebp+0x10]
000018F9  890424            mov [esp],eax
000018FC  E879F5FFFF        call 0xe7a
00001901  89442408          mov [esp+0x8],eax
00001905  8B450C            mov eax,[ebp+0xc]
00001908  89442404          mov [esp+0x4],eax
0000190C  8B4508            mov eax,[ebp+0x8]
0000190F  890424            mov [esp],eax
00001912  E8B7030000        call 0x1cce
00001917  C9                leave
00001918  C3                ret
00001919  90                nop
0000191A  55                push ebp
0000191B  89E5              mov ebp,esp
0000191D  53                push ebx
0000191E  83EC24            sub esp,byte +0x24
00001921  8B4508            mov eax,[ebp+0x8]
00001924  890424            mov [esp],eax
00001927  E8D6030000        call 0x1d02
0000192C  89C3              mov ebx,eax
0000192E  8B4508            mov eax,[ebp+0x8]
00001931  890424            mov [esp],eax
00001934  E8B5000000        call 0x19ee
00001939  89DA              mov edx,ebx
0000193B  29C2              sub edx,eax
0000193D  8B450C            mov eax,[ebp+0xc]
00001940  39C2              cmp edx,eax
00001942  0F92C0            setc al
00001945  84C0              test al,al
00001947  740B              jz 0x1954
00001949  8B4510            mov eax,[ebp+0x10]
0000194C  890424            mov [esp],eax
0000194F  E81CEDFFFF        call 0x670
00001954  8B4508            mov eax,[ebp+0x8]
00001957  890424            mov [esp],eax
0000195A  E88F000000        call 0x19ee
0000195F  89C3              mov ebx,eax
00001961  8B4508            mov eax,[ebp+0x8]
00001964  890424            mov [esp],eax
00001967  E882000000        call 0x19ee
0000196C  8945F0            mov [ebp-0x10],eax
0000196F  8D450C            lea eax,[ebp+0xc]
00001972  89442404          mov [esp+0x4],eax
00001976  8D45F0            lea eax,[ebp-0x10]
00001979  890424            mov [esp],eax
0000197C  E89C030000        call 0x1d1d
00001981  8B00              mov eax,[eax]
00001983  01D8              add eax,ebx
00001985  8945F4            mov [ebp-0xc],eax
00001988  8B4508            mov eax,[ebp+0x8]
0000198B  890424            mov [esp],eax
0000198E  E85B000000        call 0x19ee
00001993  3B45F4            cmp eax,[ebp-0xc]
00001996  7710              ja 0x19a8
00001998  8B4508            mov eax,[ebp+0x8]
0000199B  890424            mov [esp],eax
0000199E  E85F030000        call 0x1d02
000019A3  3B45F4            cmp eax,[ebp-0xc]
000019A6  730D              jnc 0x19b5
000019A8  8B4508            mov eax,[ebp+0x8]
000019AB  890424            mov [esp],eax
000019AE  E84F030000        call 0x1d02
000019B3  EB03              jmp short 0x19b8
000019B5  8B45F4            mov eax,[ebp-0xc]
000019B8  83C424            add esp,byte +0x24
000019BB  5B                pop ebx
000019BC  5D                pop ebp
000019BD  C3                ret
000019BE  55                push ebp
000019BF  89E5              mov ebp,esp
000019C1  83EC18            sub esp,byte +0x18
000019C4  837D0C00          cmp dword [ebp+0xc],byte +0x0
000019C8  741C              jz 0x19e6
000019CA  8B4508            mov eax,[ebp+0x8]
000019CD  C744240800000000  mov dword [esp+0x8],0x0
000019D5  8B550C            mov edx,[ebp+0xc]
000019D8  89542404          mov [esp+0x4],edx
000019DC  890424            mov [esp],eax
000019DF  E854030000        call 0x1d38
000019E4  EB05              jmp short 0x19eb
000019E6  B800000000        mov eax,0x0
000019EB  C9                leave
000019EC  C3                ret
000019ED  90                nop
000019EE  55                push ebp
000019EF  89E5              mov ebp,esp
000019F1  8B4508            mov eax,[ebp+0x8]
000019F4  8B4004            mov eax,[eax+0x4]
000019F7  89C2              mov edx,eax
000019F9  8B4508            mov eax,[ebp+0x8]
000019FC  8B00              mov eax,[eax]
000019FE  29C2              sub edx,eax
00001A00  89D0              mov eax,edx
00001A02  C1F802            sar eax,byte 0x2
00001A05  5D                pop ebp
00001A06  C3                ret
00001A07  55                push ebp
00001A08  89E5              mov ebp,esp
00001A0A  83EC28            sub esp,byte +0x28
00001A0D  8D45F0            lea eax,[ebp-0x10]
00001A10  8B550C            mov edx,[ebp+0xc]
00001A13  89542404          mov [esp+0x4],edx
00001A17  890424            mov [esp],eax
00001A1A  E849030000        call 0x1d68
00001A1F  83EC04            sub esp,byte +0x4
00001A22  8D45F4            lea eax,[ebp-0xc]
00001A25  8B5508            mov edx,[ebp+0x8]
00001A28  89542404          mov [esp+0x4],edx
00001A2C  890424            mov [esp],eax
00001A2F  E834030000        call 0x1d68
00001A34  83EC04            sub esp,byte +0x4
00001A37  8B4514            mov eax,[ebp+0x14]
00001A3A  8944240C          mov [esp+0xc],eax
00001A3E  8B4510            mov eax,[ebp+0x10]
00001A41  89442408          mov [esp+0x8],eax
00001A45  8B45F0            mov eax,[ebp-0x10]
00001A48  89442404          mov [esp+0x4],eax
00001A4C  8B45F4            mov eax,[ebp-0xc]
00001A4F  890424            mov [esp],eax
00001A52  E830030000        call 0x1d87
00001A57  C9                leave
00001A58  C3                ret
00001A59  90                nop
00001A5A  55                push ebp
00001A5B  89E5              mov ebp,esp
00001A5D  8B450C            mov eax,[ebp+0xc]
00001A60  8B10              mov edx,[eax]
00001A62  8B4508            mov eax,[ebp+0x8]
00001A65  8910              mov [eax],edx
00001A67  5D                pop ebp
00001A68  C3                ret
00001A69  55                push ebp
00001A6A  89E5              mov ebp,esp
00001A6C  83EC18            sub esp,byte +0x18
00001A6F  8B450C            mov eax,[ebp+0xc]
00001A72  89442404          mov [esp+0x4],eax
00001A76  8B4508            mov eax,[ebp+0x8]
00001A79  890424            mov [esp],eax
00001A7C  E827030000        call 0x1da8
00001A81  C9                leave
00001A82  C3                ret
00001A83  55                push ebp
00001A84  89E5              mov ebp,esp
00001A86  83EC18            sub esp,byte +0x18
00001A89  8B4510            mov eax,[ebp+0x10]
00001A8C  890424            mov [esp],eax
00001A8F  E814FDFFFF        call 0x17a8
00001A94  89442408          mov [esp+0x8],eax
00001A98  8B450C            mov eax,[ebp+0xc]
00001A9B  89442404          mov [esp+0x4],eax
00001A9F  8B4508            mov eax,[ebp+0x8]
00001AA2  890424            mov [esp],eax
00001AA5  E803030000        call 0x1dad
00001AAA  C9                leave
00001AAB  C3                ret
00001AAC  55                push ebp
00001AAD  89E5              mov ebp,esp
00001AAF  53                push ebx
00001AB0  83EC24            sub esp,byte +0x24
00001AB3  C74424086CA00408  mov dword [esp+0x8],0x804a06c
00001ABB  C744240401000000  mov dword [esp+0x4],0x1
00001AC3  8B4508            mov eax,[ebp+0x8]
00001AC6  890424            mov [esp],eax
00001AC9  E84CFEFFFF        call 0x191a
00001ACE  8945F0            mov [ebp-0x10],eax
00001AD1  8B4508            mov eax,[ebp+0x8]
00001AD4  8B55F0            mov edx,[ebp-0x10]
00001AD7  89542404          mov [esp+0x4],edx
00001ADB  890424            mov [esp],eax
00001ADE  E8DBFEFFFF        call 0x19be
00001AE3  8945F4            mov [ebp-0xc],eax
00001AE6  8B45F4            mov eax,[ebp-0xc]
00001AE9  8945EC            mov [ebp-0x14],eax
00001AEC  8B450C            mov eax,[ebp+0xc]
00001AEF  890424            mov [esp],eax
00001AF2  E8B1FCFFFF        call 0x17a8
00001AF7  89C3              mov ebx,eax
00001AF9  8B4508            mov eax,[ebp+0x8]
00001AFC  890424            mov [esp],eax
00001AFF  E8EAFEFFFF        call 0x19ee
00001B04  8D148500000000    lea edx,[eax*4+0x0]
00001B0B  8B45F4            mov eax,[ebp-0xc]
00001B0E  01C2              add edx,eax
00001B10  8B4508            mov eax,[ebp+0x8]
00001B13  895C2408          mov [esp+0x8],ebx
00001B17  89542404          mov [esp+0x4],edx
00001B1B  890424            mov [esp],eax
00001B1E  E860FFFFFF        call 0x1a83
00001B23  C745EC00000000    mov dword [ebp-0x14],0x0
00001B2A  8B4508            mov eax,[ebp+0x8]
00001B2D  890424            mov [esp],eax
00001B30  E8F5F1FFFF        call 0xd2a
00001B35  8B5508            mov edx,[ebp+0x8]
00001B38  8B4A04            mov ecx,[edx+0x4]
00001B3B  8B5508            mov edx,[ebp+0x8]
00001B3E  8B12              mov edx,[edx]
00001B40  8944240C          mov [esp+0xc],eax
00001B44  8B45F4            mov eax,[ebp-0xc]
00001B47  89442408          mov [esp+0x8],eax
00001B4B  894C2404          mov [esp+0x4],ecx
00001B4F  891424            mov [esp],edx
00001B52  E8B0FEFFFF        call 0x1a07
00001B57  8945EC            mov [ebp-0x14],eax
00001B5A  8345EC04          add dword [ebp-0x14],byte +0x4
00001B5E  8B4508            mov eax,[ebp+0x8]
00001B61  890424            mov [esp],eax
00001B64  E8C1F1FFFF        call 0xd2a
00001B69  8B5508            mov edx,[ebp+0x8]
00001B6C  8B4A04            mov ecx,[edx+0x4]
00001B6F  8B5508            mov edx,[ebp+0x8]
00001B72  8B12              mov edx,[edx]
00001B74  89442408          mov [esp+0x8],eax
00001B78  894C2404          mov [esp+0x4],ecx
00001B7C  891424            mov [esp],edx
00001B7F  E8AEF1FFFF        call 0xd32
00001B84  8B4508            mov eax,[ebp+0x8]
00001B87  8B4008            mov eax,[eax+0x8]
00001B8A  89C2              mov edx,eax
00001B8C  8B4508            mov eax,[ebp+0x8]
00001B8F  8B00              mov eax,[eax]
00001B91  29C2              sub edx,eax
00001B93  89D0              mov eax,edx
00001B95  C1F802            sar eax,byte 0x2
00001B98  89C1              mov ecx,eax
00001B9A  8B4508            mov eax,[ebp+0x8]
00001B9D  8B10              mov edx,[eax]
00001B9F  8B4508            mov eax,[ebp+0x8]
00001BA2  894C2408          mov [esp+0x8],ecx
00001BA6  89542404          mov [esp+0x4],edx
00001BAA  890424            mov [esp],eax
00001BAD  E8C0F4FFFF        call 0x1072
00001BB2  8B4508            mov eax,[ebp+0x8]
00001BB5  8B55F4            mov edx,[ebp-0xc]
00001BB8  8910              mov [eax],edx
00001BBA  8B4508            mov eax,[ebp+0x8]
00001BBD  8B55EC            mov edx,[ebp-0x14]
00001BC0  895004            mov [eax+0x4],edx
00001BC3  8B45F0            mov eax,[ebp-0x10]
00001BC6  8D148500000000    lea edx,[eax*4+0x0]
00001BCD  8B45F4            mov eax,[ebp-0xc]
00001BD0  01C2              add edx,eax
00001BD2  8B4508            mov eax,[ebp+0x8]
00001BD5  895008            mov [eax+0x8],edx
00001BD8  E986000000        jmp 0x1c63
00001BDD  890424            mov [esp],eax
00001BE0  E85BEBFFFF        call 0x740
00001BE5  837DEC00          cmp dword [ebp-0x14],byte +0x0
00001BE9  7528              jnz 0x1c13
00001BEB  8B4508            mov eax,[ebp+0x8]
00001BEE  890424            mov [esp],eax
00001BF1  E8F8FDFFFF        call 0x19ee
00001BF6  8D148500000000    lea edx,[eax*4+0x0]
00001BFD  8B45F4            mov eax,[ebp-0xc]
00001C00  01C2              add edx,eax
00001C02  8B4508            mov eax,[ebp+0x8]
00001C05  89542404          mov [esp+0x4],edx
00001C09  890424            mov [esp],eax
00001C0C  E87DFBFFFF        call 0x178e
00001C11  EB21              jmp short 0x1c34
00001C13  8B4508            mov eax,[ebp+0x8]
00001C16  890424            mov [esp],eax
00001C19  E80CF1FFFF        call 0xd2a
00001C1E  89442408          mov [esp+0x8],eax
00001C22  8B45EC            mov eax,[ebp-0x14]
00001C25  89442404          mov [esp+0x4],eax
00001C29  8B45F4            mov eax,[ebp-0xc]
00001C2C  890424            mov [esp],eax
00001C2F  E8FEF0FFFF        call 0xd32
00001C34  8B4508            mov eax,[ebp+0x8]
00001C37  8B55F0            mov edx,[ebp-0x10]
00001C3A  89542408          mov [esp+0x8],edx
00001C3E  8B55F4            mov edx,[ebp-0xc]
00001C41  89542404          mov [esp+0x4],edx
00001C45  890424            mov [esp],eax
00001C48  E825F4FFFF        call 0x1072
00001C4D  E84EEAFFFF        call 0x6a0
00001C52  89C3              mov ebx,eax
00001C54  E8C7EAFFFF        call 0x720
00001C59  89D8              mov eax,ebx
00001C5B  890424            mov [esp],eax
00001C5E  E8FDEAFFFF        call 0x760
00001C63  83C424            add esp,byte +0x24
00001C66  5B                pop ebx
00001C67  5D                pop ebp
00001C68  C3                ret
00001C69  90                nop
00001C6A  55                push ebp
00001C6B  89E5              mov ebp,esp
00001C6D  5D                pop ebp
00001C6E  C3                ret
00001C6F  90                nop
00001C70  55                push ebp
00001C71  89E5              mov ebp,esp
00001C73  83EC18            sub esp,byte +0x18
00001C76  8B450C            mov eax,[ebp+0xc]
00001C79  89442404          mov [esp+0x4],eax
00001C7D  8B4508            mov eax,[ebp+0x8]
00001C80  890424            mov [esp],eax
00001C83  E84E010000        call 0x1dd6
00001C88  C9                leave
00001C89  C3                ret
00001C8A  55                push ebp
00001C8B  89E5              mov ebp,esp
00001C8D  8B4508            mov eax,[ebp+0x8]
00001C90  5D                pop ebp
00001C91  C3                ret
00001C92  55                push ebp
00001C93  89E5              mov ebp,esp
00001C95  83EC28            sub esp,byte +0x28
00001C98  8B4508            mov eax,[ebp+0x8]
00001C9B  890424            mov [esp],eax
00001C9E  E8E7FFFFFF        call 0x1c8a
00001CA3  8B00              mov eax,[eax]
00001CA5  8945F4            mov [ebp-0xc],eax
00001CA8  8B450C            mov eax,[ebp+0xc]
00001CAB  890424            mov [esp],eax
00001CAE  E8D7FFFFFF        call 0x1c8a
00001CB3  8B10              mov edx,[eax]
00001CB5  8B4508            mov eax,[ebp+0x8]
00001CB8  8910              mov [eax],edx
00001CBA  8D45F4            lea eax,[ebp-0xc]
00001CBD  890424            mov [esp],eax
00001CC0  E8C5FFFFFF        call 0x1c8a
00001CC5  8B10              mov edx,[eax]
00001CC7  8B450C            mov eax,[ebp+0xc]
00001CCA  8910              mov [eax],edx
00001CCC  C9                leave
00001CCD  C3                ret
00001CCE  55                push ebp
00001CCF  89E5              mov ebp,esp
00001CD1  53                push ebx
00001CD2  83EC14            sub esp,byte +0x14
00001CD5  8B4510            mov eax,[ebp+0x10]
00001CD8  890424            mov [esp],eax
00001CDB  E89AF1FFFF        call 0xe7a
00001CE0  8B18              mov ebx,[eax]
00001CE2  8B450C            mov eax,[ebp+0xc]
00001CE5  89442404          mov [esp+0x4],eax
00001CE9  C7042404000000    mov dword [esp],0x4
00001CF0  E8A0EDFFFF        call 0xa95
00001CF5  85C0              test eax,eax
00001CF7  7402              jz 0x1cfb
00001CF9  8918              mov [eax],ebx
00001CFB  83C414            add esp,byte +0x14
00001CFE  5B                pop ebx
00001CFF  5D                pop ebp
00001D00  C3                ret
00001D01  90                nop
00001D02  55                push ebp
00001D03  89E5              mov ebp,esp
00001D05  83EC18            sub esp,byte +0x18
00001D08  8B4508            mov eax,[ebp+0x8]
00001D0B  890424            mov [esp],eax
00001D0E  E8DB000000        call 0x1dee
00001D13  890424            mov [esp],eax
00001D16  E8C0000000        call 0x1ddb
00001D1B  C9                leave
00001D1C  C3                ret
00001D1D  55                push ebp
00001D1E  89E5              mov ebp,esp
00001D20  8B4508            mov eax,[ebp+0x8]
00001D23  8B10              mov edx,[eax]
00001D25  8B450C            mov eax,[ebp+0xc]
00001D28  8B00              mov eax,[eax]
00001D2A  39C2              cmp edx,eax
00001D2C  7305              jnc 0x1d33
00001D2E  8B450C            mov eax,[ebp+0xc]
00001D31  EB03              jmp short 0x1d36
00001D33  8B4508            mov eax,[ebp+0x8]
00001D36  5D                pop ebp
00001D37  C3                ret
00001D38  55                push ebp
00001D39  89E5              mov ebp,esp
00001D3B  83EC18            sub esp,byte +0x18
00001D3E  8B4508            mov eax,[ebp+0x8]
00001D41  890424            mov [esp],eax
00001D44  E8AD000000        call 0x1df6
00001D49  3B450C            cmp eax,[ebp+0xc]
00001D4C  0F92C0            setc al
00001D4F  84C0              test al,al
00001D51  7405              jz 0x1d58
00001D53  E8D8E9FFFF        call 0x730
00001D58  8B450C            mov eax,[ebp+0xc]
00001D5B  C1E002            shl eax,byte 0x2
00001D5E  890424            mov [esp],eax
00001D61  E89AE9FFFF        call 0x700
00001D66  C9                leave
00001D67  C3                ret
00001D68  55                push ebp
00001D69  89E5              mov ebp,esp
00001D6B  83EC18            sub esp,byte +0x18
00001D6E  8B450C            mov eax,[ebp+0xc]
00001D71  89442404          mov [esp+0x4],eax
00001D75  8B4508            mov eax,[ebp+0x8]
00001D78  890424            mov [esp],eax
00001D7B  E880000000        call 0x1e00
00001D80  8B4508            mov eax,[ebp+0x8]
00001D83  C9                leave
00001D84  C20400            ret 0x4
00001D87  55                push ebp
00001D88  89E5              mov ebp,esp
00001D8A  83EC18            sub esp,byte +0x18
00001D8D  8B4510            mov eax,[ebp+0x10]
00001D90  89442408          mov [esp+0x8],eax
00001D94  8B450C            mov eax,[ebp+0xc]
00001D97  89442404          mov [esp+0x4],eax
00001D9B  8B4508            mov eax,[ebp+0x8]
00001D9E  890424            mov [esp],eax
00001DA1  E867000000        call 0x1e0d
00001DA6  C9                leave
00001DA7  C3                ret
00001DA8  55                push ebp
00001DA9  89E5              mov ebp,esp
00001DAB  5D                pop ebp
00001DAC  C3                ret
00001DAD  55                push ebp
00001DAE  89E5              mov ebp,esp
00001DB0  83EC18            sub esp,byte +0x18
00001DB3  8B4510            mov eax,[ebp+0x10]
00001DB6  890424            mov [esp],eax
00001DB9  E8EAF9FFFF        call 0x17a8
00001DBE  89442408          mov [esp+0x8],eax
00001DC2  8B450C            mov eax,[ebp+0xc]
00001DC5  89442404          mov [esp+0x4],eax
00001DC9  8B4508            mov eax,[ebp+0x8]
00001DCC  890424            mov [esp],eax
00001DCF  E85A000000        call 0x1e2e
00001DD4  C9                leave
00001DD5  C3                ret
00001DD6  55                push ebp
00001DD7  89E5              mov ebp,esp
00001DD9  5D                pop ebp
00001DDA  C3                ret
00001DDB  55                push ebp
00001DDC  89E5              mov ebp,esp
00001DDE  83EC18            sub esp,byte +0x18
00001DE1  8B4508            mov eax,[ebp+0x8]
00001DE4  890424            mov [esp],eax
00001DE7  E875000000        call 0x1e61
00001DEC  C9                leave
00001DED  C3                ret
00001DEE  55                push ebp
00001DEF  89E5              mov ebp,esp
00001DF1  8B4508            mov eax,[ebp+0x8]
00001DF4  5D                pop ebp
00001DF5  C3                ret
00001DF6  55                push ebp
00001DF7  89E5              mov ebp,esp
00001DF9  B8FFFFFF3F        mov eax,0x3fffffff
00001DFE  5D                pop ebp
00001DFF  C3                ret
00001E00  55                push ebp
00001E01  89E5              mov ebp,esp
00001E03  8B4508            mov eax,[ebp+0x8]
00001E06  8B550C            mov edx,[ebp+0xc]
00001E09  8910              mov [eax],edx
00001E0B  5D                pop ebp
00001E0C  C3                ret
00001E0D  55                push ebp
00001E0E  89E5              mov ebp,esp
00001E10  83EC18            sub esp,byte +0x18
00001E13  8B4510            mov eax,[ebp+0x10]
00001E16  89442408          mov [esp+0x8],eax
00001E1A  8B450C            mov eax,[ebp+0xc]
00001E1D  89442404          mov [esp+0x4],eax
00001E21  8B4508            mov eax,[ebp+0x8]
00001E24  890424            mov [esp],eax
00001E27  E848000000        call 0x1e74
00001E2C  C9                leave
00001E2D  C3                ret
00001E2E  55                push ebp
00001E2F  89E5              mov ebp,esp
00001E31  53                push ebx
00001E32  83EC14            sub esp,byte +0x14
00001E35  8B4510            mov eax,[ebp+0x10]
00001E38  890424            mov [esp],eax
00001E3B  E868F9FFFF        call 0x17a8
00001E40  8B18              mov ebx,[eax]
00001E42  8B450C            mov eax,[ebp+0xc]
00001E45  89442404          mov [esp+0x4],eax
00001E49  C7042404000000    mov dword [esp],0x4
00001E50  E840ECFFFF        call 0xa95
00001E55  85C0              test eax,eax
00001E57  7402              jz 0x1e5b
00001E59  8918              mov [eax],ebx
00001E5B  83C414            add esp,byte +0x14
00001E5E  5B                pop ebx
00001E5F  5D                pop ebp
00001E60  C3                ret
00001E61  55                push ebp
00001E62  89E5              mov ebp,esp
00001E64  83EC18            sub esp,byte +0x18
00001E67  8B4508            mov eax,[ebp+0x8]
00001E6A  890424            mov [esp],eax
00001E6D  E884FFFFFF        call 0x1df6
00001E72  C9                leave
00001E73  C3                ret
00001E74  55                push ebp
00001E75  89E5              mov ebp,esp
00001E77  83EC18            sub esp,byte +0x18
00001E7A  8B4510            mov eax,[ebp+0x10]
00001E7D  89442408          mov [esp+0x8],eax
00001E81  8B450C            mov eax,[ebp+0xc]
00001E84  89442404          mov [esp+0x4],eax
00001E88  8B4508            mov eax,[ebp+0x8]
00001E8B  890424            mov [esp],eax
00001E8E  E802000000        call 0x1e95
00001E93  C9                leave
00001E94  C3                ret
00001E95  55                push ebp
00001E96  89E5              mov ebp,esp
00001E98  53                push ebx
00001E99  83EC14            sub esp,byte +0x14
00001E9C  8B450C            mov eax,[ebp+0xc]
00001E9F  890424            mov [esp],eax
00001EA2  E826000000        call 0x1ecd
00001EA7  89C3              mov ebx,eax
00001EA9  8B4508            mov eax,[ebp+0x8]
00001EAC  890424            mov [esp],eax
00001EAF  E819000000        call 0x1ecd
00001EB4  8B5510            mov edx,[ebp+0x10]
00001EB7  89542408          mov [esp+0x8],edx
00001EBB  895C2404          mov [esp+0x4],ebx
00001EBF  890424            mov [esp],eax
00001EC2  E819000000        call 0x1ee0
00001EC7  83C414            add esp,byte +0x14
00001ECA  5B                pop ebx
00001ECB  5D                pop ebp
00001ECC  C3                ret
00001ECD  55                push ebp
00001ECE  89E5              mov ebp,esp
00001ED0  83EC18            sub esp,byte +0x18
00001ED3  8B4508            mov eax,[ebp+0x8]
00001ED6  890424            mov [esp],eax
00001ED9  E846000000        call 0x1f24
00001EDE  C9                leave
00001EDF  C3                ret
00001EE0  55                push ebp
00001EE1  89E5              mov ebp,esp
00001EE3  56                push esi
00001EE4  53                push ebx
00001EE5  83EC10            sub esp,byte +0x10
00001EE8  8B4510            mov eax,[ebp+0x10]
00001EEB  890424            mov [esp],eax
00001EEE  E844000000        call 0x1f37
00001EF3  89C6              mov esi,eax
00001EF5  8B450C            mov eax,[ebp+0xc]
00001EF8  890424            mov [esp],eax
00001EFB  E837000000        call 0x1f37
00001F00  89C3              mov ebx,eax
00001F02  8B4508            mov eax,[ebp+0x8]
00001F05  890424            mov [esp],eax
00001F08  E82A000000        call 0x1f37
00001F0D  89742408          mov [esp+0x8],esi
00001F11  895C2404          mov [esp+0x4],ebx
00001F15  890424            mov [esp],eax
00001F18  E82D000000        call 0x1f4a
00001F1D  83C410            add esp,byte +0x10
00001F20  5B                pop ebx
00001F21  5E                pop esi
00001F22  5D                pop ebp
00001F23  C3                ret
00001F24  55                push ebp
00001F25  89E5              mov ebp,esp
00001F27  83EC18            sub esp,byte +0x18
00001F2A  8D4508            lea eax,[ebp+0x8]
00001F2D  890424            mov [esp],eax
00001F30  E83B000000        call 0x1f70
00001F35  C9                leave
00001F36  C3                ret
00001F37  55                push ebp
00001F38  89E5              mov ebp,esp
00001F3A  83EC18            sub esp,byte +0x18
00001F3D  8B4508            mov eax,[ebp+0x8]
00001F40  890424            mov [esp],eax
00001F43  E832000000        call 0x1f7a
00001F48  C9                leave
00001F49  C3                ret
00001F4A  55                push ebp
00001F4B  89E5              mov ebp,esp
00001F4D  83EC28            sub esp,byte +0x28
00001F50  C645F701          mov byte [ebp-0x9],0x1
00001F54  8B4510            mov eax,[ebp+0x10]
00001F57  89442408          mov [esp+0x8],eax
00001F5B  8B450C            mov eax,[ebp+0xc]
00001F5E  89442404          mov [esp+0x4],eax
00001F62  8B4508            mov eax,[ebp+0x8]
00001F65  890424            mov [esp],eax
00001F68  E815000000        call 0x1f82
00001F6D  C9                leave
00001F6E  C3                ret
00001F6F  90                nop
00001F70  55                push ebp
00001F71  89E5              mov ebp,esp
00001F73  8B4508            mov eax,[ebp+0x8]
00001F76  8B00              mov eax,[eax]
00001F78  5D                pop ebp
00001F79  C3                ret
00001F7A  55                push ebp
00001F7B  89E5              mov ebp,esp
00001F7D  8B4508            mov eax,[ebp+0x8]
00001F80  5D                pop ebp
00001F81  C3                ret
00001F82  55                push ebp
00001F83  89E5              mov ebp,esp
00001F85  83EC28            sub esp,byte +0x28
00001F88  8B550C            mov edx,[ebp+0xc]
00001F8B  8B4508            mov eax,[ebp+0x8]
00001F8E  29C2              sub edx,eax
00001F90  89D0              mov eax,edx
00001F92  C1F802            sar eax,byte 0x2
00001F95  8945F4            mov [ebp-0xc],eax
00001F98  837DF400          cmp dword [ebp-0xc],byte +0x0
00001F9C  741C              jz 0x1fba
00001F9E  8B45F4            mov eax,[ebp-0xc]
00001FA1  C1E002            shl eax,byte 0x2
00001FA4  89442408          mov [esp+0x8],eax
00001FA8  8B4508            mov eax,[ebp+0x8]
00001FAB  89442404          mov [esp+0x4],eax
00001FAF  8B4510            mov eax,[ebp+0x10]
00001FB2  890424            mov [esp],eax
00001FB5  E856E7FFFF        call 0x710
00001FBA  8B45F4            mov eax,[ebp-0xc]
00001FBD  8D148500000000    lea edx,[eax*4+0x0]
00001FC4  8B4510            mov eax,[ebp+0x10]
00001FC7  01D0              add eax,edx
00001FC9  C9                leave
00001FCA  C3                ret
00001FCB  6690              xchg ax,ax
00001FCD  6690              xchg ax,ax
00001FCF  90                nop
00001FD0  55                push ebp
00001FD1  57                push edi
00001FD2  56                push esi
00001FD3  53                push ebx
00001FD4  E8D7E7FFFF        call 0x7b0
00001FD9  81C327300000      add ebx,0x3027
00001FDF  83EC0C            sub esp,byte +0xc
00001FE2  8B6C2420          mov ebp,[esp+0x20]
00001FE6  8DB3FCFEFFFF      lea esi,[ebx-0x104]
00001FEC  E83FE6FFFF        call 0x630
00001FF1  8D83F4FEFFFF      lea eax,[ebx-0x10c]
00001FF7  29C6              sub esi,eax
00001FF9  C1FE02            sar esi,byte 0x2
00001FFC  85F6              test esi,esi
00001FFE  7425              jz 0x2025
00002000  31FF              xor edi,edi
00002002  8DB600000000      lea esi,[esi+0x0]
00002008  83EC04            sub esp,byte +0x4
0000200B  FF74242C          push dword [esp+0x2c]
0000200F  FF74242C          push dword [esp+0x2c]
00002013  55                push ebp
00002014  FF94BBF4FEFFFF    call [ebx+edi*4-0x10c]
0000201B  83C701            add edi,byte +0x1
0000201E  83C410            add esp,byte +0x10
00002021  39F7              cmp edi,esi
00002023  75E3              jnz 0x2008
00002025  83C40C            add esp,byte +0xc
00002028  5B                pop ebx
00002029  5E                pop esi
0000202A  5F                pop edi
0000202B  5D                pop ebp
0000202C  C3                ret
0000202D  8D7600            lea esi,[esi+0x0]
00002030  F3C3              rep ret
00002032  0000              add [eax],al
00002034  53                push ebx
00002035  83EC08            sub esp,byte +0x8
00002038  E873E7FFFF        call 0x7b0
0000203D  81C3C32F0000      add ebx,0x2fc3
00002043  83C408            add esp,byte +0x8
00002046  5B                pop ebx
00002047  C3                ret
00002048  0300              add eax,[eax]
0000204A  0000              add [eax],al
0000204C  0100              add [eax],eax
0000204E  0200              add al,[eax]
00002050  0000              add [eax],al
00002052  002564002564      add [dword 0x64250064],ah
00002058  2564004361        and eax,0x61430064
0000205D  7365              jnc 0x20c4
0000205F  2023              and [ebx],ah
00002061  25643A2025        and eax,0x25203a64
00002066  642025640A0076    and [dword fs:0x76000a64],ah
0000206D  6563746F72        arpl [gs:edi+ebp*2+0x72],si
00002072  3A3A              cmp bh,[edx]
00002074  5F                pop edi
00002075  4D                dec ebp
00002076  5F                pop edi
00002077  656D              gs insd
00002079  706C              jo 0x20e7
0000207B  61                popa
0000207C  63655F            arpl [ebp+0x5f],sp
0000207F  626163            bound esp,[ecx+0x63]
00002082  6B5F6175          imul ebx,[edi+0x61],byte +0x75
00002086  7800              js 0x2088
00002088  0200              add al,[eax]
0000208A  0000              add [eax],al
0000208C  011B              add [ebx],ebx
0000208E  033B              add edi,[ebx]
00002090  3803              cmp [ebx],al
00002092  0000              add [eax],al
00002094  660000            o16 add [eax],al
00002097  00D4              add ah,dl
00002099  E5FF              in eax,0xff
0000209B  FF540300          call [ebx+eax+0x0]
0000209F  00F1              add cl,dh
000020A1  E7FF              out 0xff,eax
000020A3  FF                db 0xff
000020A4  D803              fadd dword [ebx]
000020A6  0000              add [eax],al
000020A8  AE                scasb
000020A9  E9FFFF5010        jmp 0x105120ad
000020AE  0000              add [eax],al
000020B0  ED                in eax,dx
000020B1  E9FFFF7010        jmp 0x107120b5
000020B6  0000              add [eax],al
000020B8  09EA              or edx,ebp
000020BA  FF                db 0xff
000020BB  FF                db 0xff
000020BC  7803              js 0x20c1
000020BE  0000              add [eax],al
000020C0  12EA              adc ch,dl
000020C2  FF                db 0xff
000020C3  FF9803000026      call far [eax+0x26000003]
000020C9  EAFFFF00040000    jmp 0x0:0x400ffff
000020D0  3AEA              cmp ch,dl
000020D2  FF                db 0xff
000020D3  FF20              jmp [eax]
000020D5  0400              add al,0x0
000020D7  0073EA            add [ebx-0x16],dh
000020DA  FF                db 0xff
000020DB  FF440400          inc dword [esp+eax+0x0]
000020DF  007CEAFF          add [edx+ebp*8-0x1],bh
000020E3  FF640400          jmp [esp+eax+0x0]
000020E7  00FC              add ah,bh
000020E9  EAFFFF8C040000    jmp 0x0:0x48cffff
000020F0  5A                pop edx
000020F1  EBFF              jmp short 0x20f2
000020F3  FFB00400006E      push dword [eax+0x6e000004]
000020F9  EBFF              jmp short 0x20fa
000020FB  FFD0              call eax
000020FD  0400              add al,0x0
000020FF  00C5              add ch,al
00002101  EBFF              jmp short 0x2102
00002103  FFF4              push esp
00002105  0400              add al,0x0
00002107  00CE              add dh,cl
00002109  EBFF              jmp short 0x210a
0000210B  FF1405000034EC    call [eax-0x13cc0000]
00002112  FF                db 0xff
00002113  FF                db 0xff
00002114  3805000048EC      cmp [dword 0xec480000],al
0000211A  FF                db 0xff
0000211B  FF5805            call far [eax+0x5]
0000211E  0000              add [eax],al
00002120  5C                pop esp
00002121  EC                in al,dx
00002122  FF                db 0xff
00002123  FF                db 0xff
00002124  7805              js 0x212b
00002126  0000              add [eax],al
00002128  9E                sahf
00002129  EC                in al,dx
0000212A  FF                db 0xff
0000212B  FF9C050000A6EC    call far [ebp+eax-0x135a0000]
00002132  FF                db 0xff
00002133  FF                db 0xff
00002134  BC050000C0        mov esp,0xc0000005
00002139  EC                in al,dx
0000213A  FF                db 0xff
0000213B  FF                db 0xff
0000213C  DC050000E4EC      fadd qword [dword 0xece40000]
00002142  FF                db 0xff
00002143  FF00              inc dword [eax]
00002145  06                push es
00002146  0000              add [eax],al
00002148  04ED              add al,0xed
0000214A  FF                db 0xff
0000214B  FF20              jmp [eax]
0000214D  06                push es
0000214E  0000              add [eax],al
00002150  26ED              es in eax,dx
00002152  FF                db 0xff
00002153  FF4006            inc dword [eax+0x6]
00002156  0000              add [eax],al
00002158  EE                out dx,al
00002159  ED                in eax,dx
0000215A  FF                db 0xff
0000215B  FF640600          jmp [esi+eax+0x0]
0000215F  00F6              add dh,dh
00002161  ED                in eax,dx
00002162  FF                db 0xff
00002163  FF840600004DEE    inc dword [esi+eax-0x11b30000]
0000216A  FF                db 0xff
0000216B  FFA4060000DAEE    jmp [esi+eax-0x11260000]
00002172  FF                db 0xff
00002173  FFCC              dec esp
00002175  06                push es
00002176  0000              add [eax],al
00002178  02EF              add ch,bh
0000217A  FF                db 0xff
0000217B  FF                db 0xff
0000217C  EC                in al,dx
0000217D  06                push es
0000217E  0000              add [eax],al
00002180  54                push esp
00002181  EF                out dx,eax
00002182  FF                db 0xff
00002183  FF10              call [eax]
00002185  07                pop es
00002186  0000              add [eax],al
00002188  80EFFF            sub bh,0xff
0000218B  FF30              push dword [eax]
0000218D  07                pop es
0000218E  0000              add [eax],al
00002190  A2EFFFFF50        mov [0x50ffffef],al
00002195  07                pop es
00002196  0000              add [eax],al
00002198  D2EF              shr bh,cl
0000219A  FF                db 0xff
0000219B  FF7007            push dword [eax+0x7]
0000219E  0000              add [eax],al
000021A0  E6EF              out 0xef,al
000021A2  FF                db 0xff
000021A3  FF900700000D      call [eax+0xd000007]
000021A9  F0                lock
000021AA  FF                db 0xff
000021AB  FFB007000027      push dword [eax+0x27000007]
000021B1  F0                lock
000021B2  FF                db 0xff
000021B3  FFD0              call eax
000021B5  07                pop es
000021B6  0000              add [eax],al
000021B8  30F0              xor al,dh
000021BA  FF                db 0xff
000021BB  FFF0              push eax
000021BD  07                pop es
000021BE  0000              add [eax],al
000021C0  6C                insb
000021C1  F0                lock
000021C2  FF                db 0xff
000021C3  FF10              call [eax]
000021C5  0800              or [eax],al
000021C7  007BF0            add [ebx-0x10],bh
000021CA  FF                db 0xff
000021CB  FF30              push dword [eax]
000021CD  0800              or [eax],al
000021CF  00ACF0FFFF5408    add [eax+esi*8+0x854ffff],ch
000021D6  0000              add [eax],al
000021D8  DEF0              fdivrp st0
000021DA  FF                db 0xff
000021DB  FF740800          push dword [eax+ecx+0x0]
000021DF  00E8              add al,ch
000021E1  F0                lock
000021E2  FF                db 0xff
000021E3  FF94080000DBF2    call [eax+ecx-0xd250000]
000021EA  FF                db 0xff
000021EB  FFC4              inc esp
000021ED  0800              or [eax],al
000021EF  0004F3            add [ebx+esi*8],al
000021F2  FF                db 0xff
000021F3  FFE4              jmp esp
000021F5  0800              or [eax],al
000021F7  00C2              add dl,al
000021F9  F4                hlt
000021FA  FF                db 0xff
000021FB  FF10              call [eax]
000021FD  0900              or [eax],eax
000021FF  00F5              add ch,dh
00002201  F4                hlt
00002202  FF                db 0xff
00002203  FF30              push dword [eax]
00002205  0900              or [eax],eax
00002207  0030              add [eax],dh
00002209  F6FF              idiv bh
0000220B  FF6009            jmp [eax+0x9]
0000220E  0000              add [eax],al
00002210  58                pop eax
00002211  F6FF              idiv bh
00002213  FF8009000062      inc dword [eax+0x62000009]
00002219  F6FF              idiv bh
0000221B  FFA009000077      jmp [eax+0x77000009]
00002221  F6FF              idiv bh
00002223  FFC0              inc eax
00002225  0900              or [eax],eax
00002227  0002              add [edx],al
00002229  F7FF              idiv edi
0000222B  FF                db 0xff
0000222C  E80900001C        call 0x1c00223a
00002231  F7FF              idiv edi
00002233  FF08              dec dword [eax]
00002235  0A00              or al,[eax]
00002237  0024F7            add [edi+esi*8],ah
0000223A  FF                db 0xff
0000223B  FF28              jmp far [eax]
0000223D  0A00              or al,[eax]
0000223F  008CF7FFFF480A    add [edi+esi*8+0xa48ffff],cl
00002246  0000              add [eax],al
00002248  A0F7FFFF68        mov al,[0x68fffff7]
0000224D  0A00              or al,[eax]
0000224F  00A6F7FFFF88      add [esi-0x77000009],ah
00002255  0A00              or al,[eax]
00002257  00B9F7FFFFA8      add [ecx-0x57000009],bh
0000225D  0A00              or al,[eax]
0000225F  00BEF7FFFFC8      add [esi-0x37000009],bh
00002265  0A00              or al,[eax]
00002267  00FE              add dh,bh
00002269  F7FF              idiv edi
0000226B  FF                db 0xff
0000226C  E80A000048        call 0x4800227b
00002271  F8                clc
00002272  FF                db 0xff
00002273  FF08              dec dword [eax]
00002275  0B00              or eax,[eax]
00002277  0050F8            add [eax-0x8],dl
0000227A  FF                db 0xff
0000227B  FF28              jmp far [eax]
0000227D  0B00              or eax,[eax]
0000227F  0064F8FF          add [eax+edi*8-0x1],ah
00002283  FF480B            dec dword [eax+0xb]
00002286  0000              add [eax],al
00002288  8EF8              mov segr7,eax
0000228A  FF                db 0xff
0000228B  FF680B            jmp far [eax+0xb]
0000228E  0000              add [eax],al
00002290  32F9              xor bh,cl
00002292  FF                db 0xff
00002293  FF8C0B000062F9    dec dword [ebx+ecx-0x69e0000]
0000229A  FF                db 0xff
0000229B  FFAC0B00007BF9    jmp far [ebx+ecx-0x6850000]
000022A2  FF                db 0xff
000022A3  FFCC              dec esp
000022A5  0B00              or eax,[eax]
000022A7  00CE              add dh,cl
000022A9  F9                stc
000022AA  FF                db 0xff
000022AB  FF                db 0xff
000022AC  EC                in al,dx
000022AD  0B00              or eax,[eax]
000022AF  00DD              add ch,bl
000022B1  F9                stc
000022B2  FF                db 0xff
000022B3  FF0C0C            dec dword [esp+ecx]
000022B6  0000              add [eax],al
000022B8  F7F9              idiv ecx
000022BA  FF                db 0xff
000022BB  FF2C0C            jmp far [esp+ecx]
000022BE  0000              add [eax],al
000022C0  20FA              and dl,bh
000022C2  FF                db 0xff
000022C3  FF4C0C00          dec dword [esp+ecx+0x0]
000022C7  00DE              add dh,bl
000022C9  FB                sti
000022CA  FF                db 0xff
000022CB  FF                db 0xff
000022CC  780C              js 0x22da
000022CE  0000              add [eax],al
000022D0  E4FB              in al,0xfb
000022D2  FF                db 0xff
000022D3  FF980C0000FE      call far [eax-0x1fffff4]
000022D9  FB                sti
000022DA  FF                db 0xff
000022DB  FF                db 0xff
000022DC  B80C000006        mov eax,0x600000c
000022E1  FC                cld
000022E2  FF                db 0xff
000022E3  FF                db 0xff
000022E4  D80C00            fmul dword [eax+eax]
000022E7  0042FC            add [edx-0x4],al
000022EA  FF                db 0xff
000022EB  FF                db 0xff
000022EC  F8                clc
000022ED  0C00              or al,0x0
000022EF  0076FC            add [esi-0x4],dh
000022F2  FF                db 0xff
000022F3  FF1C0D000091FC    call far [ecx-0x36f0000]
000022FA  FF                db 0xff
000022FB  FF400D            inc dword [eax+0xd]
000022FE  0000              add [eax],al
00002300  AC                lodsb
00002301  FC                cld
00002302  FF                db 0xff
00002303  FF600D            jmp [eax+0xd]
00002306  0000              add [eax],al
00002308  DCFC              fdiv to st4
0000230A  FF                db 0xff
0000230B  FF800D0000FB      inc dword [eax-0x4fffff3]
00002311  FC                cld
00002312  FF                db 0xff
00002313  FFA00D00001C      jmp [eax+0x1c00000d]
00002319  FD                std
0000231A  FF                db 0xff
0000231B  FFC0              inc eax
0000231D  0D000021FD        or eax,0xfd210000
00002322  FF                db 0xff
00002323  FFE0              jmp eax
00002325  0D00004AFD        or eax,0xfd4a0000
0000232A  FF                db 0xff
0000232B  FF00              inc dword [eax]
0000232D  0E                push cs
0000232E  0000              add [eax],al
00002330  4F                dec edi
00002331  FD                std
00002332  FF                db 0xff
00002333  FF20              jmp [eax]
00002335  0E                push cs
00002336  0000              add [eax],al
00002338  62                db 0x62
00002339  FD                std
0000233A  FF                db 0xff
0000233B  FF400E            inc dword [eax+0xe]
0000233E  0000              add [eax],al
00002340  6AFD              push byte -0x3
00002342  FF                db 0xff
00002343  FF600E            jmp [eax+0xe]
00002346  0000              add [eax],al
00002348  74FD              jz 0x2347
0000234A  FF                db 0xff
0000234B  FF800E000081      inc dword [eax-0x7efffff2]
00002351  FD                std
00002352  FF                db 0xff
00002353  FFA00E0000A2      jmp [eax-0x5dfffff2]
00002359  FD                std
0000235A  FF                db 0xff
0000235B  FFC0              inc eax
0000235D  0E                push cs
0000235E  0000              add [eax],al
00002360  D5FD              aad 0xfd
00002362  FF                db 0xff
00002363  FFE4              jmp esp
00002365  0E                push cs
00002366  0000              add [eax],al
00002368  E8FDFFFF04        call 0x500236a
0000236D  0F0000            sldt [eax]
00002370  09FE              or esi,edi
00002372  FF                db 0xff
00002373  FF240F            jmp [edi+ecx]
00002376  0000              add [eax],al
00002378  41                inc ecx
00002379  FE                db 0xfe
0000237A  FF                db 0xff
0000237B  FF480F            dec dword [eax+0xf]
0000237E  0000              add [eax],al
00002380  54                push esp
00002381  FE                db 0xfe
00002382  FF                db 0xff
00002383  FF680F            jmp far [eax+0xf]
00002386  0000              add [eax],al
00002388  98                cwde
00002389  FE                db 0xfe
0000238A  FF                db 0xff
0000238B  FF900F0000AB      call [eax-0x54fffff1]
00002391  FE                db 0xfe
00002392  FF                db 0xff
00002393  FFB00F0000BE      push dword [eax-0x41fffff1]
00002399  FE                db 0xfe
0000239A  FF                db 0xff
0000239B  FFD0              call eax
0000239D  0F0000            sldt [eax]
000023A0  E4FE              in al,0xfe
000023A2  FF                db 0xff
000023A3  FFF0              push eax
000023A5  0F0000            sldt [eax]
000023A8  EE                out dx,al
000023A9  FE                db 0xfe
000023AA  FF                db 0xff
000023AB  FF10              call [eax]
000023AD  1000              adc [eax],al
000023AF  00F6              add dh,dh
000023B1  FE                db 0xfe
000023B2  FF                db 0xff
000023B3  FF30              push dword [eax]
000023B5  1000              adc [eax],al
000023B7  0044FFFF          add [edi+edi*8-0x1],al
000023BB  FF90100000A4      call [eax-0x5bfffff0]
000023C1  FF                db 0xff
000023C2  FF                db 0xff
000023C3  FF                db 0xff
000023C4  DC10              fcom qword [eax]
000023C6  0000              add [eax],al
000023C8  1400              adc al,0x0
000023CA  0000              add [eax],al
000023CC  0000              add [eax],al
000023CE  0000              add [eax],al
000023D0  017A52            add [edx+0x52],edi
000023D3  0001              add [ecx],al
000023D5  7C08              jl 0x23df
000023D7  011B              add [ebx],ebx
000023D9  0C04              or al,0x4
000023DB  0488              add al,0x88
000023DD  0100              add [eax],eax
000023DF  0020              add [eax],ah
000023E1  0000              add [eax],al
000023E3  001C00            add [eax+eax],bl
000023E6  0000              add [eax],al
000023E8  78E2              js 0x23cc
000023EA  FF                db 0xff
000023EB  FF10              call [eax]
000023ED  0100              add [eax],eax
000023EF  0000              add [eax],al
000023F1  0E                push cs
000023F2  08460E            or [esi+0xe],al
000023F5  0C4A              or al,0x4a
000023F7  0F0B              ud2
000023F9  7404              jz 0x23ff
000023FB  7800              js 0x23fd
000023FD  3F                aas
000023FE  1A3B              sbb bh,[ebx]
00002400  2A32              sub dh,[edx]
00002402  2422              and al,0x22
00002404  1C00              sbb al,0x0
00002406  0000              add [eax],al
00002408  40                inc eax
00002409  0000              add [eax],al
0000240B  0089E6FFFF08      add [ecx+0x8ffffe6],cl
00002411  0000              add [eax],al
00002413  0000              add [eax],al
00002415  41                inc ecx
00002416  0E                push cs
00002417  088502420D05      or [ebp+0x50d4202],al
0000241D  44                inc esp
0000241E  C50C04            lds ecx,[esp+eax]
00002421  0400              add al,0x0
00002423  001C00            add [eax+eax],bl
00002426  0000              add [eax],al
00002428  60                pusha
00002429  0000              add [eax],al
0000242B  0072E6            add [edx-0x1a],dh
0000242E  FF                db 0xff
0000242F  FF13              call [ebx]
00002431  0000              add [eax],al
00002433  0000              add [eax],al
00002435  41                inc ecx
00002436  0E                push cs
00002437  088502420D05      or [ebp+0x50d4202],al
0000243D  4F                dec edi
0000243E  C50C04            lds ecx,[esp+eax]
00002441  0400              add al,0x0
00002443  001C00            add [eax+eax],bl
00002446  0000              add [eax],al
00002448  0000              add [eax],al
0000244A  0000              add [eax],al
0000244C  017A50            add [edx+0x50],edi
0000244F  4C                dec esp
00002450  52                push edx
00002451  0001              add [ecx],al
00002453  7C08              jl 0x245d
00002455  07                pop es
00002456  005087            add [eax-0x79],dl
00002459  0408              add al,0x8
0000245B  001B              add [ebx],bl
0000245D  0C04              or al,0x4
0000245F  0488              add al,0x88
00002461  0100              add [eax],eax
00002463  002400            add [eax+eax],ah
00002466  0000              add [eax],al
00002468  2400              and al,0x0
0000246A  0000              add [eax],al
0000246C  11E4              adc esp,esp
0000246E  FF                db 0xff
0000246F  FF                db 0xff
00002470  BD01000004        mov ebp,0x4000001
00002475  80B10408410E08    xor byte [ecx+0xe410804],0x8
0000247C  8502              test [edx],eax
0000247E  42                inc edx
0000247F  0D05478303        or eax,0x3834705
00002484  03B201C5C30C      add esi,[edx+0xcc3c501]
0000248A  0404              add al,0x4
0000248C  1C00              sbb al,0x0
0000248E  0000              add [eax],al
00002490  C8000000          enter 0x0,0x0
00002494  1E                push ds
00002495  E6FF              out 0xff,al
00002497  FF13              call [ebx]
00002499  0000              add [eax],al
0000249B  0000              add [eax],al
0000249D  41                inc ecx
0000249E  0E                push cs
0000249F  088502420D05      or [ebp+0x50d4202],al
000024A5  4F                dec edi
000024A6  C50C04            lds ecx,[esp+eax]
000024A9  0400              add al,0x0
000024AB  0020              add [eax],ah
000024AD  0000              add [eax],al
000024AF  006C0000          add [eax+eax+0x0],ch
000024B3  0012              add [edx],dl
000024B5  E6FF              out 0xff,al
000024B7  FF                db 0xff
000024B8  3900              cmp [eax],eax
000024BA  0000              add [eax],al
000024BC  0499              add al,0x99
000024BE  B104              mov cl,0x4
000024C0  08410E            or [ecx+0xe],al
000024C3  088502420D05      or [ebp+0x50d4202],al
000024C9  75C5              jnz 0x2490
000024CB  0C04              or al,0x4
000024CD  0400              add al,0x0
000024CF  001C00            add [eax+eax],bl
000024D2  0000              add [eax],al
000024D4  0C01              or al,0x1
000024D6  0000              add [eax],al
000024D8  27                daa
000024D9  E6FF              out 0xff,al
000024DB  FF08              dec dword [eax]
000024DD  0000              add [eax],al
000024DF  0000              add [eax],al
000024E1  41                inc ecx
000024E2  0E                push cs
000024E3  088502420D05      or [ebp+0x50d4202],al
000024E9  44                inc esp
000024EA  C50C04            lds ecx,[esp+eax]
000024ED  0400              add al,0x0
000024EF  002400            add [eax+eax],ah
000024F2  0000              add [eax],al
000024F4  B000              mov al,0x0
000024F6  0000              add [eax],al
000024F8  10E6              adc dh,ah
000024FA  FF                db 0xff
000024FB  FF                db 0xff
000024FC  7F00              jg 0x24fe
000024FE  0000              add [eax],al
00002500  049D              add al,0x9d
00002502  B104              mov cl,0x4
00002504  08410E            or [ecx+0xe],al
00002507  088502420D05      or [ebp+0x50d4202],al
0000250D  44                inc esp
0000250E  830302            add dword [ebx],byte +0x2
00002511  77C5              ja 0x24d8
00002513  C3                ret
00002514  0C04              or al,0x4
00002516  0400              add al,0x0
00002518  2000              and [eax],al
0000251A  0000              add [eax],al
0000251C  54                push esp
0000251D  0100              add [eax],eax
0000251F  0068E6            add [eax-0x1a],ch
00002522  FF                db 0xff
00002523  FF5E00            call far [esi+0x0]
00002526  0000              add [eax],al
00002528  00410E            add [ecx+0xe],al
0000252B  088502420D05      or [ebp+0x50d4202],al
00002531  44                inc esp
00002532  830302            add dword [ebx],byte +0x2
00002535  56                push esi
00002536  C5                db 0xc5
00002537  C3                ret
00002538  0C04              or al,0x4
0000253A  0400              add al,0x0
0000253C  1C00              sbb al,0x0
0000253E  0000              add [eax],al
00002540  7801              js 0x2543
00002542  0000              add [eax],al
00002544  A2E6FFFF13        mov [0x13ffffe6],al
00002549  0000              add [eax],al
0000254B  0000              add [eax],al
0000254D  41                inc ecx
0000254E  0E                push cs
0000254F  088502420D05      or [ebp+0x50d4202],al
00002555  4F                dec edi
00002556  C50C04            lds ecx,[esp+eax]
00002559  0400              add al,0x0
0000255B  0020              add [eax],ah
0000255D  0000              add [eax],al
0000255F  009801000096      add [eax-0x69ffffff],bl
00002565  E6FF              out 0xff,al
00002567  FF5700            call [edi+0x0]
0000256A  0000              add [eax],al
0000256C  00410E            add [ecx+0xe],al
0000256F  088502420D05      or [ebp+0x50d4202],al
00002575  44                inc esp
00002576  830302            add dword [ebx],byte +0x2
00002579  4F                dec edi
0000257A  C5                db 0xc5
0000257B  C3                ret
0000257C  0C04              or al,0x4
0000257E  0400              add al,0x0
00002580  1C00              sbb al,0x0
00002582  0000              add [eax],al
00002584  BC010000C9        mov esp,0xc9000001
00002589  E6FF              out 0xff,al
0000258B  FF08              dec dword [eax]
0000258D  0000              add [eax],al
0000258F  0000              add [eax],al
00002591  41                inc ecx
00002592  0E                push cs
00002593  088502420D05      or [ebp+0x50d4202],al
00002599  44                inc esp
0000259A  C50C04            lds ecx,[esp+eax]
0000259D  0400              add al,0x0
0000259F  0020              add [eax],ah
000025A1  0000              add [eax],al
000025A3  00DC              add ah,bl
000025A5  0100              add [eax],eax
000025A7  00B2E6FFFF66      add [edx+0x66ffffe6],dh
000025AD  0000              add [eax],al
000025AF  0000              add [eax],al
000025B1  41                inc ecx
000025B2  0E                push cs
000025B3  088502420D05      or [ebp+0x50d4202],al
000025B9  44                inc esp
000025BA  830302            add dword [ebx],byte +0x2
000025BD  5E                pop esi
000025BE  C5                db 0xc5
000025BF  C3                ret
000025C0  0C04              or al,0x4
000025C2  0400              add al,0x0
000025C4  1C00              sbb al,0x0
000025C6  0000              add [eax],al
000025C8  0002              add [edx],al
000025CA  0000              add [eax],al
000025CC  F4                hlt
000025CD  E6FF              out 0xff,al
000025CF  FF13              call [ebx]
000025D1  0000              add [eax],al
000025D3  0000              add [eax],al
000025D5  41                inc ecx
000025D6  0E                push cs
000025D7  088502420D05      or [ebp+0x50d4202],al
000025DD  4F                dec edi
000025DE  C50C04            lds ecx,[esp+eax]
000025E1  0400              add al,0x0
000025E3  001C00            add [eax+eax],bl
000025E6  0000              add [eax],al
000025E8  2002              and [edx],al
000025EA  0000              add [eax],al
000025EC  E8E6FFFF13        call 0x140025d7
000025F1  0000              add [eax],al
000025F3  0000              add [eax],al
000025F5  41                inc ecx
000025F6  0E                push cs
000025F7  088502420D05      or [ebp+0x50d4202],al
000025FD  4F                dec edi
000025FE  C50C04            lds ecx,[esp+eax]
00002601  0400              add al,0x0
00002603  0020              add [eax],ah
00002605  0000              add [eax],al
00002607  00C4              add ah,al
00002609  0100              add [eax],eax
0000260B  00DC              add ah,bl
0000260D  E6FF              out 0xff,al
0000260F  FF4100            inc dword [ecx+0x0]
00002612  0000              add [eax],al
00002614  04A9              add al,0xa9
00002616  B104              mov cl,0x4
00002618  08410E            or [ecx+0xe],al
0000261B  088502420D05      or [ebp+0x50d4202],al
00002621  7DC5              jnl 0x25e8
00002623  0C04              or al,0x4
00002625  0400              add al,0x0
00002627  001C00            add [eax+eax],bl
0000262A  0000              add [eax],al
0000262C  640200            add al,[fs:eax]
0000262F  00FA              add dl,bh
00002631  E6FF              out 0xff,al
00002633  FF08              dec dword [eax]
00002635  0000              add [eax],al
00002637  0000              add [eax],al
00002639  41                inc ecx
0000263A  0E                push cs
0000263B  088502420D05      or [ebp+0x50d4202],al
00002641  44                inc esp
00002642  C50C04            lds ecx,[esp+eax]
00002645  0400              add al,0x0
00002647  001C00            add [eax+eax],bl
0000264A  0000              add [eax],al
0000264C  8402              test [edx],al
0000264E  0000              add [eax],al
00002650  E2E6              loop 0x2638
00002652  FF                db 0xff
00002653  FF1A              call far [edx]
00002655  0000              add [eax],al
00002657  0000              add [eax],al
00002659  41                inc ecx
0000265A  0E                push cs
0000265B  088502420D05      or [ebp+0x50d4202],al
00002661  56                push esi
00002662  C50C04            lds ecx,[esp+eax]
00002665  0400              add al,0x0
00002667  0020              add [eax],ah
00002669  0000              add [eax],al
0000266B  0028              add [eax],ch
0000266D  0200              add al,[eax]
0000266F  00DC              add ah,bl
00002671  E6FF              out 0xff,al
00002673  FF2400            jmp [eax+eax]
00002676  0000              add [eax],al
00002678  04AD              add al,0xad
0000267A  B104              mov cl,0x4
0000267C  08410E            or [ecx+0xe],al
0000267F  088502420D05      or [ebp+0x50d4202],al
00002685  60                pusha
00002686  C50C04            lds ecx,[esp+eax]
00002689  0400              add al,0x0
0000268B  001C00            add [eax+eax],bl
0000268E  0000              add [eax],al
00002690  C8020000          enter 0x2,0x0
00002694  DCE6              fsubr to st6
00002696  FF                db 0xff
00002697  FF1F              call far [edi]
00002699  0000              add [eax],al
0000269B  0000              add [eax],al
0000269D  41                inc ecx
0000269E  0E                push cs
0000269F  088502420D05      or [ebp+0x50d4202],al
000026A5  59                pop ecx
000026A6  C50C04            lds ecx,[esp+eax]
000026A9  0400              add al,0x0
000026AB  001C00            add [eax+eax],bl
000026AE  0000              add [eax],al
000026B0  E8020000DC        call 0xdc0026b7
000026B5  E6FF              out 0xff,al
000026B7  FF22              jmp [edx]
000026B9  0000              add [eax],al
000026BB  0000              add [eax],al
000026BD  41                inc ecx
000026BE  0E                push cs
000026BF  088502420D05      or [ebp+0x50d4202],al
000026C5  5C                pop esp
000026C6  C50C04            lds ecx,[esp+eax]
000026C9  0400              add al,0x0
000026CB  0020              add [eax],ah
000026CD  0000              add [eax],al
000026CF  0008              add [eax],cl
000026D1  0300              add eax,[eax]
000026D3  00DE              add dh,bl
000026D5  E6FF              out 0xff,al
000026D7  FFC8              dec eax
000026D9  0000              add [eax],al
000026DB  0000              add [eax],al
000026DD  41                inc ecx
000026DE  0E                push cs
000026DF  088502420D05      or [ebp+0x50d4202],al
000026E5  44                inc esp
000026E6  830302            add dword [ebx],byte +0x2
000026E9  C0C5C3            rol ch,byte 0xc3
000026EC  0C04              or al,0x4
000026EE  0400              add al,0x0
000026F0  1C00              sbb al,0x0
000026F2  0000              add [eax],al
000026F4  2C03              sub al,0x3
000026F6  0000              add [eax],al
000026F8  82                db 0x82
000026F9  E7FF              out 0xff,eax
000026FB  FF08              dec dword [eax]
000026FD  0000              add [eax],al
000026FF  0000              add [eax],al
00002701  41                inc ecx
00002702  0E                push cs
00002703  088502420D05      or [ebp+0x50d4202],al
00002709  44                inc esp
0000270A  C50C04            lds ecx,[esp+eax]
0000270D  0400              add al,0x0
0000270F  001C00            add [eax+eax],bl
00002712  0000              add [eax],al
00002714  4C                dec esp
00002715  0300              add eax,[eax]
00002717  006AE7            add [edx-0x19],ch
0000271A  FF                db 0xff
0000271B  FF5700            call [edi+0x0]
0000271E  0000              add [eax],al
00002720  00410E            add [ecx+0xe],al
00002723  088502420D05      or [ebp+0x50d4202],al
00002729  0253C5            add dl,[ebx-0x3b]
0000272C  0C04              or al,0x4
0000272E  0400              add al,0x0
00002730  2400              and al,0x0
00002732  0000              add [eax],al
00002734  6C                insb
00002735  0300              add eax,[eax]
00002737  00A1E7FFFF8D      add [ecx-0x72000019],ah
0000273D  0000              add [eax],al
0000273F  0000              add [eax],al
00002741  41                inc ecx
00002742  0E                push cs
00002743  088502420D05      or [ebp+0x50d4202],al
00002749  45                inc ebp
0000274A  8603              xchg al,[ebx]
0000274C  83040282          add dword [edx+eax],byte -0x7e
00002750  C3                ret
00002751  41                inc ecx
00002752  C641C50C          mov byte [ecx-0x3b],0xc
00002756  0404              add al,0x4
00002758  1C00              sbb al,0x0
0000275A  0000              add [eax],al
0000275C  94                xchg eax,esp
0000275D  0300              add eax,[eax]
0000275F  0006              add [esi],al
00002761  E8FFFF2800        call 0x292765
00002766  0000              add [eax],al
00002768  00410E            add [ecx+0xe],al
0000276B  088502420D05      or [ebp+0x50d4202],al
00002771  64C50C04          lds ecx,[fs:esp+eax]
00002775  0400              add al,0x0
00002777  0020              add [eax],ah
00002779  0000              add [eax],al
0000277B  00B40300000EE8    add [ebx+eax-0x17f20000],dh
00002782  FF                db 0xff
00002783  FF5100            call [ecx+0x0]
00002786  0000              add [eax],al
00002788  00410E            add [ecx+0xe],al
0000278B  088502420D05      or [ebp+0x50d4202],al
00002791  44                inc esp
00002792  830302            add dword [ebx],byte +0x2
00002795  48                dec eax
00002796  C3                ret
00002797  41                inc ecx
00002798  C50C04            lds ecx,[esp+eax]
0000279B  041C              add al,0x1c
0000279D  0000              add [eax],al
0000279F  00D8              add al,bl
000027A1  0300              add eax,[eax]
000027A3  003CE8            add [eax+ebp*8],bh
000027A6  FF                db 0xff
000027A7  FF2C00            jmp far [eax+eax]
000027AA  0000              add [eax],al
000027AC  00410E            add [ecx+0xe],al
000027AF  088502420D05      or [ebp+0x50d4202],al
000027B5  68C50C0404        push dword 0x4040cc5
000027BA  0000              add [eax],al
000027BC  1C00              sbb al,0x0
000027BE  0000              add [eax],al
000027C0  F8                clc
000027C1  0300              add eax,[eax]
000027C3  0048E8            add [eax-0x18],cl
000027C6  FF                db 0xff
000027C7  FF22              jmp [edx]
000027C9  0000              add [eax],al
000027CB  0000              add [eax],al
000027CD  41                inc ecx
000027CE  0E                push cs
000027CF  088502420D05      or [ebp+0x50d4202],al
000027D5  5E                pop esi
000027D6  C50C04            lds ecx,[esp+eax]
000027D9  0400              add al,0x0
000027DB  001C00            add [eax+eax],bl
000027DE  0000              add [eax],al
000027E0  180400            sbb [eax+eax],al
000027E3  004AE8            add [edx-0x18],cl
000027E6  FF                db 0xff
000027E7  FF30              push dword [eax]
000027E9  0000              add [eax],al
000027EB  0000              add [eax],al
000027ED  41                inc ecx
000027EE  0E                push cs
000027EF  088502420D05      or [ebp+0x50d4202],al
000027F5  6C                insb
000027F6  C50C04            lds ecx,[esp+eax]
000027F9  0400              add al,0x0
000027FB  001C00            add [eax+eax],bl
000027FE  0000              add [eax],al
00002800  380400            cmp [eax+eax],al
00002803  005AE8            add [edx-0x18],bl
00002806  FF                db 0xff
00002807  FF13              call [ebx]
00002809  0000              add [eax],al
0000280B  0000              add [eax],al
0000280D  41                inc ecx
0000280E  0E                push cs
0000280F  088502420D05      or [ebp+0x50d4202],al
00002815  4F                dec edi
00002816  C50C04            lds ecx,[esp+eax]
00002819  0400              add al,0x0
0000281B  001C00            add [eax+eax],bl
0000281E  0000              add [eax],al
00002820  58                pop eax
00002821  0400              add al,0x0
00002823  004EE8            add [esi-0x18],cl
00002826  FF                db 0xff
00002827  FF27              jmp [edi]
00002829  0000              add [eax],al
0000282B  0000              add [eax],al
0000282D  41                inc ecx
0000282E  0E                push cs
0000282F  088502420D05      or [ebp+0x50d4202],al
00002835  63C5              arpl bp,ax
00002837  0C04              or al,0x4
00002839  0400              add al,0x0
0000283B  001C00            add [eax+eax],bl
0000283E  0000              add [eax],al
00002840  7804              js 0x2846
00002842  0000              add [eax],al
00002844  55                push ebp
00002845  E8FFFF1A00        call 0x1b2849
0000284A  0000              add [eax],al
0000284C  00410E            add [ecx+0xe],al
0000284F  088502420D05      or [ebp+0x50d4202],al
00002855  56                push esi
00002856  C50C04            lds ecx,[esp+eax]
00002859  0400              add al,0x0
0000285B  001C00            add [eax+eax],bl
0000285E  0000              add [eax],al
00002860  98                cwde
00002861  0400              add al,0x0
00002863  004FE8            add [edi-0x18],cl
00002866  FF                db 0xff
00002867  FF08              dec dword [eax]
00002869  0000              add [eax],al
0000286B  0000              add [eax],al
0000286D  41                inc ecx
0000286E  0E                push cs
0000286F  088502420D05      or [ebp+0x50d4202],al
00002875  44                inc esp
00002876  C50C04            lds ecx,[esp+eax]
00002879  0400              add al,0x0
0000287B  001C00            add [eax+eax],bl
0000287E  0000              add [eax],al
00002880  B804000038        mov eax,0x38000004
00002885  E8FFFF3C00        call 0x3d2889
0000288A  0000              add [eax],al
0000288C  00410E            add [ecx+0xe],al
0000288F  088502420D05      or [ebp+0x50d4202],al
00002895  78C5              js 0x285c
00002897  0C04              or al,0x4
00002899  0400              add al,0x0
0000289B  001C00            add [eax+eax],bl
0000289E  0000              add [eax],al
000028A0  D80400            fadd dword [eax+eax]
000028A3  0054E8FF          add [eax+ebp*8-0x1],dl
000028A7  FF0F              dec dword [edi]
000028A9  0000              add [eax],al
000028AB  0000              add [eax],al
000028AD  41                inc ecx
000028AE  0E                push cs
000028AF  088502420D05      or [ebp+0x50d4202],al
000028B5  4B                dec ebx
000028B6  C50C04            lds ecx,[esp+eax]
000028B9  0400              add al,0x0
000028BB  0020              add [eax],ah
000028BD  0000              add [eax],al
000028BF  00F8              add al,bh
000028C1  0400              add al,0x0
000028C3  0043E8            add [ebx-0x18],al
000028C6  FF                db 0xff
000028C7  FF30              push dword [eax]
000028C9  0000              add [eax],al
000028CB  0000              add [eax],al
000028CD  41                inc ecx
000028CE  0E                push cs
000028CF  088502420D05      or [ebp+0x50d4202],al
000028D5  44                inc esp
000028D6  830367            add dword [ebx],byte +0x67
000028D9  C3                ret
000028DA  41                inc ecx
000028DB  C50C04            lds ecx,[esp+eax]
000028DE  0400              add al,0x0
000028E0  1C00              sbb al,0x0
000028E2  0000              add [eax],al
000028E4  1C05              sbb al,0x5
000028E6  0000              add [eax],al
000028E8  50                push eax
000028E9  E8FFFF3100        call 0x3228ed
000028EE  0000              add [eax],al
000028F0  00410E            add [ecx+0xe],al
000028F3  088502420D05      or [ebp+0x50d4202],al
000028F9  6BC50C            imul eax,ebp,byte +0xc
000028FC  0404              add al,0x4
000028FE  0000              add [eax],al
00002900  1C00              sbb al,0x0
00002902  0000              add [eax],al
00002904  3C05              cmp al,0x5
00002906  0000              add [eax],al
00002908  62                db 0x62
00002909  E8FFFF0A00        call 0xb290d
0000290E  0000              add [eax],al
00002910  00410E            add [ecx+0xe],al
00002913  088502420D05      or [ebp+0x50d4202],al
00002919  46                inc esi
0000291A  C50C04            lds ecx,[esp+eax]
0000291D  0400              add al,0x0
0000291F  002C00            add [eax+eax],ch
00002922  0000              add [eax],al
00002924  5C                pop esp
00002925  0500004CE8        add eax,0xe84c0000
0000292A  FF                db 0xff
0000292B  FFF3              push ebx
0000292D  0100              add [eax],eax
0000292F  0000              add [eax],al
00002931  41                inc ecx
00002932  0E                push cs
00002933  088502420D05      or [ebp+0x50d4202],al
00002939  46                inc esi
0000293A  8703              xchg eax,[ebx]
0000293C  860483            xchg al,[ebx+eax*4]
0000293F  0503E601C3        add eax,0xc301e603
00002944  41                inc ecx
00002945  C641C741          mov byte [ecx-0x39],0x41
00002949  C50C04            lds ecx,[esp+eax]
0000294C  0400              add al,0x0
0000294E  0000              add [eax],al
00002950  1C00              sbb al,0x0
00002952  0000              add [eax],al
00002954  8C0500000FEA      mov [dword 0xea0f0000],es
0000295A  FF                db 0xff
0000295B  FF29              jmp far [ecx]
0000295D  0000              add [eax],al
0000295F  0000              add [eax],al
00002961  41                inc ecx
00002962  0E                push cs
00002963  088502420D05      or [ebp+0x50d4202],al
00002969  65C50C04          lds ecx,[gs:esp+eax]
0000296D  0400              add al,0x0
0000296F  0028              add [eax],ch
00002971  0000              add [eax],al
00002973  0030              add [eax],dh
00002975  05000018EA        add eax,0xea180000
0000297A  FF                db 0xff
0000297B  FF                db 0xff
0000297C  BD01000004        mov ebp,0x4000001
00002981  B4B1              mov ah,0xb1
00002983  0408              add al,0x8
00002985  41                inc ecx
00002986  0E                push cs
00002987  088502420D05      or [ebp+0x50d4202],al
0000298D  44                inc esp
0000298E  830303            add dword [ebx],byte +0x3
00002991  B401              mov ah,0x1
00002993  C3                ret
00002994  41                inc ecx
00002995  C50C04            lds ecx,[esp+eax]
00002998  0400              add al,0x0
0000299A  0000              add [eax],al
0000299C  1C00              sbb al,0x0
0000299E  0000              add [eax],al
000029A0  D8050000AAEB      fadd dword [dword 0xebaa0000]
000029A6  FF                db 0xff
000029A7  FF33              push dword [ebx]
000029A9  0000              add [eax],al
000029AB  0000              add [eax],al
000029AD  41                inc ecx
000029AE  0E                push cs
000029AF  088502420D05      or [ebp+0x50d4202],al
000029B5  6D                insd
000029B6  C50C04            lds ecx,[esp+eax]
000029B9  0400              add al,0x0
000029BB  002C00            add [eax+eax],ch
000029BE  0000              add [eax],al
000029C0  F8                clc
000029C1  050000BDEB        add eax,0xebbd0000
000029C6  FF                db 0xff
000029C7  FF                db 0xff
000029C8  3A01              cmp al,[ecx]
000029CA  0000              add [eax],al
000029CC  00410E            add [ecx+0xe],al
000029CF  088502420D05      or [ebp+0x50d4202],al
000029D5  46                inc esi
000029D6  8703              xchg eax,[ebx]
000029D8  860483            xchg al,[ebx+eax*4]
000029DB  05032D01C3        add eax,0xc3012d03
000029E0  41                inc ecx
000029E1  C641C741          mov byte [ecx-0x39],0x41
000029E5  C50C04            lds ecx,[esp+eax]
000029E8  0400              add al,0x0
000029EA  0000              add [eax],al
000029EC  1C00              sbb al,0x0
000029EE  0000              add [eax],al
000029F0  2806              sub [esi],al
000029F2  0000              add [eax],al
000029F4  C8ECFFFF          enter 0xffec,0xff
000029F8  27                daa
000029F9  0000              add [eax],al
000029FB  0000              add [eax],al
000029FD  41                inc ecx
000029FE  0E                push cs
000029FF  088502420D05      or [ebp+0x50d4202],al
00002A05  61                popa
00002A06  C50C04            lds ecx,[esp+eax]
00002A09  0400              add al,0x0
00002A0B  001C00            add [eax+eax],bl
00002A0E  0000              add [eax],al
00002A10  48                dec eax
00002A11  06                push es
00002A12  0000              add [eax],al
00002A14  D0EC              shr ah,1
00002A16  FF                db 0xff
00002A17  FF0A              dec dword [edx]
00002A19  0000              add [eax],al
00002A1B  0000              add [eax],al
00002A1D  41                inc ecx
00002A1E  0E                push cs
00002A1F  088502420D05      or [ebp+0x50d4202],al
00002A25  46                inc esi
00002A26  C50C04            lds ecx,[esp+eax]
00002A29  0400              add al,0x0
00002A2B  001C00            add [eax+eax],bl
00002A2E  0000              add [eax],al
00002A30  68060000BA        push dword 0xba000006
00002A35  EC                in al,dx
00002A36  FF                db 0xff
00002A37  FF1500000000      call [dword 0x0]
00002A3D  41                inc ecx
00002A3E  0E                push cs
00002A3F  088502420D05      or [ebp+0x50d4202],al
00002A45  51                push ecx
00002A46  C50C04            lds ecx,[esp+eax]
00002A49  0400              add al,0x0
00002A4B  002400            add [eax+eax],ah
00002A4E  0000              add [eax],al
00002A50  8806              mov [esi],al
00002A52  0000              add [eax],al
00002A54  AF                scasd
00002A55  EC                in al,dx
00002A56  FF                db 0xff
00002A57  FF8B00000000      dec dword [ebx+0x0]
00002A5D  41                inc ecx
00002A5E  0E                push cs
00002A5F  088502420D05      or [ebp+0x50d4202],al
00002A65  45                inc ebp
00002A66  8603              xchg al,[ebx]
00002A68  83040280          add dword [edx+eax],byte -0x80
00002A6C  C3                ret
00002A6D  41                inc ecx
00002A6E  C641C50C          mov byte [ecx-0x3b],0xc
00002A72  0404              add al,0x4
00002A74  1C00              sbb al,0x0
00002A76  0000              add [eax],al
00002A78  B006              mov al,0x6
00002A7A  0000              add [eax],al
00002A7C  12ED              adc ch,ch
00002A7E  FF                db 0xff
00002A7F  FF1A              call far [edx]
00002A81  0000              add [eax],al
00002A83  0000              add [eax],al
00002A85  41                inc ecx
00002A86  0E                push cs
00002A87  088502420D05      or [ebp+0x50d4202],al
00002A8D  56                push esi
00002A8E  C50C04            lds ecx,[esp+eax]
00002A91  0400              add al,0x0
00002A93  001C00            add [eax+eax],bl
00002A96  0000              add [eax],al
00002A98  D006              rol byte [esi],1
00002A9A  0000              add [eax],al
00002A9C  0CED              or al,0xed
00002A9E  FF                db 0xff
00002A9F  FF08              dec dword [eax]
00002AA1  0000              add [eax],al
00002AA3  0000              add [eax],al
00002AA5  41                inc ecx
00002AA6  0E                push cs
00002AA7  088502420D05      or [ebp+0x50d4202],al
00002AAD  44                inc esp
00002AAE  C50C04            lds ecx,[esp+eax]
00002AB1  0400              add al,0x0
00002AB3  001C00            add [eax+eax],bl
00002AB6  0000              add [eax],al
00002AB8  F006              lock push es
00002ABA  0000              add [eax],al
00002ABC  F4                hlt
00002ABD  EC                in al,dx
00002ABE  FF                db 0xff
00002ABF  FF6700            jmp [edi+0x0]
00002AC2  0000              add [eax],al
00002AC4  00410E            add [ecx+0xe],al
00002AC7  088502420D05      or [ebp+0x50d4202],al
00002ACD  0263C5            add ah,[ebx-0x3b]
00002AD0  0C04              or al,0x4
00002AD2  0400              add al,0x0
00002AD4  1C00              sbb al,0x0
00002AD6  0000              add [eax],al
00002AD8  1007              adc [edi],al
00002ADA  0000              add [eax],al
00002ADC  3CED              cmp al,0xed
00002ADE  FF                db 0xff
00002ADF  FF13              call [ebx]
00002AE1  0000              add [eax],al
00002AE3  0000              add [eax],al
00002AE5  41                inc ecx
00002AE6  0E                push cs
00002AE7  088502420D05      or [ebp+0x50d4202],al
00002AED  4F                dec edi
00002AEE  C50C04            lds ecx,[esp+eax]
00002AF1  0400              add al,0x0
00002AF3  001C00            add [eax+eax],bl
00002AF6  0000              add [eax],al
00002AF8  3007              xor [edi],al
00002AFA  0000              add [eax],al
00002AFC  30ED              xor ch,ch
00002AFE  FF                db 0xff
00002AFF  FF0500000000      inc dword [dword 0x0]
00002B05  41                inc ecx
00002B06  0E                push cs
00002B07  088502420D05      or [ebp+0x50d4202],al
00002B0D  41                inc ecx
00002B0E  C50C04            lds ecx,[esp+eax]
00002B11  0400              add al,0x0
00002B13  001C00            add [eax+eax],bl
00002B16  0000              add [eax],al
00002B18  50                push eax
00002B19  07                pop es
00002B1A  0000              add [eax],al
00002B1C  16                push ss
00002B1D  ED                in eax,dx
00002B1E  FF                db 0xff
00002B1F  FF13              call [ebx]
00002B21  0000              add [eax],al
00002B23  0000              add [eax],al
00002B25  41                inc ecx
00002B26  0E                push cs
00002B27  088502420D05      or [ebp+0x50d4202],al
00002B2D  4F                dec edi
00002B2E  C50C04            lds ecx,[esp+eax]
00002B31  0400              add al,0x0
00002B33  001C00            add [eax+eax],bl
00002B36  0000              add [eax],al
00002B38  7007              jo 0x2b41
00002B3A  0000              add [eax],al
00002B3C  09ED              or ebp,ebp
00002B3E  FF                db 0xff
00002B3F  FF0500000000      inc dword [dword 0x0]
00002B45  41                inc ecx
00002B46  0E                push cs
00002B47  088502420D05      or [ebp+0x50d4202],al
00002B4D  41                inc ecx
00002B4E  C50C04            lds ecx,[esp+eax]
00002B51  0400              add al,0x0
00002B53  001C00            add [eax+eax],bl
00002B56  0000              add [eax],al
00002B58  90                nop
00002B59  07                pop es
00002B5A  0000              add [eax],al
00002B5C  EE                out dx,al
00002B5D  EC                in al,dx
00002B5E  FF                db 0xff
00002B5F  FF                db 0xff
00002B60  3F                aas
00002B61  0000              add [eax],al
00002B63  0000              add [eax],al
00002B65  41                inc ecx
00002B66  0E                push cs
00002B67  088502420D05      or [ebp+0x50d4202],al
00002B6D  7BC5              jpo 0x2b34
00002B6F  0C04              or al,0x4
00002B71  0400              add al,0x0
00002B73  001C00            add [eax+eax],bl
00002B76  0000              add [eax],al
00002B78  B007              mov al,0x7
00002B7A  0000              add [eax],al
00002B7C  0E                push cs
00002B7D  ED                in eax,dx
00002B7E  FF                db 0xff
00002B7F  FF4A00            dec dword [edx+0x0]
00002B82  0000              add [eax],al
00002B84  00410E            add [ecx+0xe],al
00002B87  088502420D05      or [ebp+0x50d4202],al
00002B8D  0246C5            add al,[esi-0x3b]
00002B90  0C04              or al,0x4
00002B92  0400              add al,0x0
00002B94  1C00              sbb al,0x0
00002B96  0000              add [eax],al
00002B98  D007              rol byte [edi],1
00002B9A  0000              add [eax],al
00002B9C  38ED              cmp ch,ch
00002B9E  FF                db 0xff
00002B9F  FF08              dec dword [eax]
00002BA1  0000              add [eax],al
00002BA3  0000              add [eax],al
00002BA5  41                inc ecx
00002BA6  0E                push cs
00002BA7  088502420D05      or [ebp+0x50d4202],al
00002BAD  44                inc esp
00002BAE  C50C04            lds ecx,[esp+eax]
00002BB1  0400              add al,0x0
00002BB3  001C00            add [eax+eax],bl
00002BB6  0000              add [eax],al
00002BB8  F007              lock pop es
00002BBA  0000              add [eax],al
00002BBC  20ED              and ch,ch
00002BBE  FF                db 0xff
00002BBF  FF1400            call [eax+eax]
00002BC2  0000              add [eax],al
00002BC4  00410E            add [ecx+0xe],al
00002BC7  088502420D05      or [ebp+0x50d4202],al
00002BCD  50                push eax
00002BCE  C50C04            lds ecx,[esp+eax]
00002BD1  0400              add al,0x0
00002BD3  001C00            add [eax+eax],bl
00002BD6  0000              add [eax],al
00002BD8  1008              adc [eax],cl
00002BDA  0000              add [eax],al
00002BDC  14ED              adc al,0xed
00002BDE  FF                db 0xff
00002BDF  FF29              jmp far [ecx]
00002BE1  0000              add [eax],al
00002BE3  0000              add [eax],al
00002BE5  41                inc ecx
00002BE6  0E                push cs
00002BE7  088502420D05      or [ebp+0x50d4202],al
00002BED  65C50C04          lds ecx,[gs:esp+eax]
00002BF1  0400              add al,0x0
00002BF3  0020              add [eax],ah
00002BF5  0000              add [eax],al
00002BF7  0030              add [eax],dh
00002BF9  0800              or [eax],al
00002BFB  001E              add [esi],bl
00002BFD  ED                in eax,dx
00002BFE  FF                db 0xff
00002BFF  FFA40000000041    jmp [eax+eax+0x41000000]
00002C06  0E                push cs
00002C07  088502420D05      or [ebp+0x50d4202],al
00002C0D  44                inc esp
00002C0E  830302            add dword [ebx],byte +0x2
00002C11  9BC3              wait ret
00002C13  41                inc ecx
00002C14  C50C04            lds ecx,[esp+eax]
00002C17  041C              add al,0x1c
00002C19  0000              add [eax],al
00002C1B  00540800          add [eax+ecx+0x0],dl
00002C1F  009EEDFFFF2F      add [esi+0x2fffffed],bl
00002C25  0000              add [eax],al
00002C27  0000              add [eax],al
00002C29  41                inc ecx
00002C2A  0E                push cs
00002C2B  088502420D05      or [ebp+0x50d4202],al
00002C31  6BC50C            imul eax,ebp,byte +0xc
00002C34  0404              add al,0x4
00002C36  0000              add [eax],al
00002C38  1C00              sbb al,0x0
00002C3A  0000              add [eax],al
00002C3C  7408              jz 0x2c46
00002C3E  0000              add [eax],al
00002C40  AE                scasb
00002C41  ED                in eax,dx
00002C42  FF                db 0xff
00002C43  FF19              call far [ecx]
00002C45  0000              add [eax],al
00002C47  0000              add [eax],al
00002C49  41                inc ecx
00002C4A  0E                push cs
00002C4B  088502420D05      or [ebp+0x50d4202],al
00002C51  55                push ebp
00002C52  C50C04            lds ecx,[esp+eax]
00002C55  0400              add al,0x0
00002C57  001C00            add [eax+eax],bl
00002C5A  0000              add [eax],al
00002C5C  94                xchg eax,esp
00002C5D  0800              or [eax],al
00002C5F  00A7EDFFFF52      add [edi+0x52ffffed],ah
00002C65  0000              add [eax],al
00002C67  0000              add [eax],al
00002C69  41                inc ecx
00002C6A  0E                push cs
00002C6B  088502420D05      or [ebp+0x50d4202],al
00002C71  024EC5            add cl,[esi-0x3b]
00002C74  0C04              or al,0x4
00002C76  0400              add al,0x0
00002C78  1C00              sbb al,0x0
00002C7A  0000              add [eax],al
00002C7C  B408              mov ah,0x8
00002C7E  0000              add [eax],al
00002C80  DA                db 0xda
00002C81  ED                in eax,dx
00002C82  FF                db 0xff
00002C83  FF0F              dec dword [edi]
00002C85  0000              add [eax],al
00002C87  0000              add [eax],al
00002C89  41                inc ecx
00002C8A  0E                push cs
00002C8B  088502420D05      or [ebp+0x50d4202],al
00002C91  4B                dec ebx
00002C92  C50C04            lds ecx,[esp+eax]
00002C95  0400              add al,0x0
00002C97  001C00            add [eax+eax],bl
00002C9A  0000              add [eax],al
00002C9C  D408              aam 0x8
00002C9E  0000              add [eax],al
00002CA0  C9                leave
00002CA1  ED                in eax,dx
00002CA2  FF                db 0xff
00002CA3  FF1A              call far [edx]
00002CA5  0000              add [eax],al
00002CA7  0000              add [eax],al
00002CA9  41                inc ecx
00002CAA  0E                push cs
00002CAB  088502420D05      or [ebp+0x50d4202],al
00002CB1  56                push esi
00002CB2  C50C04            lds ecx,[esp+eax]
00002CB5  0400              add al,0x0
00002CB7  001C00            add [eax+eax],bl
00002CBA  0000              add [eax],al
00002CBC  F4                hlt
00002CBD  0800              or [eax],al
00002CBF  00C3              add bl,al
00002CC1  ED                in eax,dx
00002CC2  FF                db 0xff
00002CC3  FF29              jmp far [ecx]
00002CC5  0000              add [eax],al
00002CC7  0000              add [eax],al
00002CC9  41                inc ecx
00002CCA  0E                push cs
00002CCB  088502420D05      or [ebp+0x50d4202],al
00002CD1  65C50C04          lds ecx,[gs:esp+eax]
00002CD5  0400              add al,0x0
00002CD7  0028              add [eax],ch
00002CD9  0000              add [eax],al
00002CDB  0098080000CC      add [eax-0x33fffff8],bl
00002CE1  ED                in eax,dx
00002CE2  FF                db 0xff
00002CE3  FF                db 0xff
00002CE4  BD01000004        mov ebp,0x4000001
00002CE9  D8B10408410E      fdiv dword [ecx+0xe410804]
00002CEF  088502420D05      or [ebp+0x50d4202],al
00002CF5  44                inc esp
00002CF6  830303            add dword [ebx],byte +0x3
00002CF9  B401              mov ah,0x1
00002CFB  C3                ret
00002CFC  41                inc ecx
00002CFD  C50C04            lds ecx,[esp+eax]
00002D00  0400              add al,0x0
00002D02  0000              add [eax],al
00002D04  1C00              sbb al,0x0
00002D06  0000              add [eax],al
00002D08  40                inc eax
00002D09  0900              or [eax],eax
00002D0B  005EEF            add [esi-0x11],bl
00002D0E  FF                db 0xff
00002D0F  FF0500000000      inc dword [dword 0x0]
00002D15  41                inc ecx
00002D16  0E                push cs
00002D17  088502420D05      or [ebp+0x50d4202],al
00002D1D  41                inc ecx
00002D1E  C50C04            lds ecx,[esp+eax]
00002D21  0400              add al,0x0
00002D23  001C00            add [eax+eax],bl
00002D26  0000              add [eax],al
00002D28  60                pusha
00002D29  0900              or [eax],eax
00002D2B  0044EFFF          add [edi+ebp*8-0x1],al
00002D2F  FF1A              call far [edx]
00002D31  0000              add [eax],al
00002D33  0000              add [eax],al
00002D35  41                inc ecx
00002D36  0E                push cs
00002D37  088502420D05      or [ebp+0x50d4202],al
00002D3D  56                push esi
00002D3E  C50C04            lds ecx,[esp+eax]
00002D41  0400              add al,0x0
00002D43  001C00            add [eax+eax],bl
00002D46  0000              add [eax],al
00002D48  800900            or byte [ecx],0x0
00002D4B  003E              add [esi],bh
00002D4D  EF                out dx,eax
00002D4E  FF                db 0xff
00002D4F  FF08              dec dword [eax]
00002D51  0000              add [eax],al
00002D53  0000              add [eax],al
00002D55  41                inc ecx
00002D56  0E                push cs
00002D57  088502420D05      or [ebp+0x50d4202],al
00002D5D  44                inc esp
00002D5E  C50C04            lds ecx,[esp+eax]
00002D61  0400              add al,0x0
00002D63  001C00            add [eax+eax],bl
00002D66  0000              add [eax],al
00002D68  A009000026        mov al,[0x26000009]
00002D6D  EF                out dx,eax
00002D6E  FF                db 0xff
00002D6F  FF                db 0xff
00002D70  3C00              cmp al,0x0
00002D72  0000              add [eax],al
00002D74  00410E            add [ecx+0xe],al
00002D77  088502420D05      or [ebp+0x50d4202],al
00002D7D  78C5              js 0x2d44
00002D7F  0C04              or al,0x4
00002D81  0400              add al,0x0
00002D83  0020              add [eax],ah
00002D85  0000              add [eax],al
00002D87  00C0              add al,al
00002D89  0900              or [eax],eax
00002D8B  0042EF            add [edx-0x11],al
00002D8E  FF                db 0xff
00002D8F  FF33              push dword [ebx]
00002D91  0000              add [eax],al
00002D93  0000              add [eax],al
00002D95  41                inc ecx
00002D96  0E                push cs
00002D97  088502420D05      or [ebp+0x50d4202],al
00002D9D  44                inc esp
00002D9E  83036A            add dword [ebx],byte +0x6a
00002DA1  C3                ret
00002DA2  41                inc ecx
00002DA3  C50C04            lds ecx,[esp+eax]
00002DA6  0400              add al,0x0
00002DA8  2000              and [eax],al
00002DAA  0000              add [eax],al
00002DAC  6809000052        push dword 0x52000009
00002DB1  EF                out dx,eax
00002DB2  FF                db 0xff
00002DB3  FF1B              call far [ebx]
00002DB5  0000              add [eax],al
00002DB7  0004FC            add [esp+edi*8],al
00002DBA  B104              mov cl,0x4
00002DBC  08410E            or [ecx+0xe],al
00002DBF  088502420D05      or [ebp+0x50d4202],al
00002DC5  57                push edi
00002DC6  C50C04            lds ecx,[esp+eax]
00002DC9  0400              add al,0x0
00002DCB  001C00            add [eax+eax],bl
00002DCE  0000              add [eax],al
00002DD0  080A              or [edx],cl
00002DD2  0000              add [eax],al
00002DD4  49                dec ecx
00002DD5  EF                out dx,eax
00002DD6  FF                db 0xff
00002DD7  FF1B              call far [ebx]
00002DD9  0000              add [eax],al
00002DDB  0000              add [eax],al
00002DDD  41                inc ecx
00002DDE  0E                push cs
00002DDF  088502420D05      or [ebp+0x50d4202],al
00002DE5  57                push edi
00002DE6  C50C04            lds ecx,[esp+eax]
00002DE9  0400              add al,0x0
00002DEB  001C00            add [eax+eax],bl
00002DEE  0000              add [eax],al
00002DF0  280A              sub [edx],cl
00002DF2  0000              add [eax],al
00002DF4  44                inc esp
00002DF5  EF                out dx,eax
00002DF6  FF                db 0xff
00002DF7  FF30              push dword [eax]
00002DF9  0000              add [eax],al
00002DFB  0000              add [eax],al
00002DFD  41                inc ecx
00002DFE  0E                push cs
00002DFF  088502420D05      or [ebp+0x50d4202],al
00002E05  6C                insb
00002E06  C50C04            lds ecx,[esp+eax]
00002E09  0400              add al,0x0
00002E0B  001C00            add [eax+eax],bl
00002E0E  0000              add [eax],al
00002E10  48                dec eax
00002E11  0A00              or al,[eax]
00002E13  0054EFFF          add [edi+ebp*8-0x1],dl
00002E17  FF1F              call far [edi]
00002E19  0000              add [eax],al
00002E1B  0000              add [eax],al
00002E1D  41                inc ecx
00002E1E  0E                push cs
00002E1F  088502420D05      or [ebp+0x50d4202],al
00002E25  59                pop ecx
00002E26  C50C04            lds ecx,[esp+eax]
00002E29  0400              add al,0x0
00002E2B  001C00            add [eax+eax],bl
00002E2E  0000              add [eax],al
00002E30  680A000053        push dword 0x5300000a
00002E35  EF                out dx,eax
00002E36  FF                db 0xff
00002E37  FF21              jmp [ecx]
00002E39  0000              add [eax],al
00002E3B  0000              add [eax],al
00002E3D  41                inc ecx
00002E3E  0E                push cs
00002E3F  088502420D05      or [ebp+0x50d4202],al
00002E45  5D                pop ebp
00002E46  C50C04            lds ecx,[esp+eax]
00002E49  0400              add al,0x0
00002E4B  001C00            add [eax+eax],bl
00002E4E  0000              add [eax],al
00002E50  880A              mov [edx],cl
00002E52  0000              add [eax],al
00002E54  54                push esp
00002E55  EF                out dx,eax
00002E56  FF                db 0xff
00002E57  FF0500000000      inc dword [dword 0x0]
00002E5D  41                inc ecx
00002E5E  0E                push cs
00002E5F  088502420D05      or [ebp+0x50d4202],al
00002E65  41                inc ecx
00002E66  C50C04            lds ecx,[esp+eax]
00002E69  0400              add al,0x0
00002E6B  001C00            add [eax+eax],bl
00002E6E  0000              add [eax],al
00002E70  A80A              test al,0xa
00002E72  0000              add [eax],al
00002E74  39EF              cmp edi,ebp
00002E76  FF                db 0xff
00002E77  FF29              jmp far [ecx]
00002E79  0000              add [eax],al
00002E7B  0000              add [eax],al
00002E7D  41                inc ecx
00002E7E  0E                push cs
00002E7F  088502420D05      or [ebp+0x50d4202],al
00002E85  65C50C04          lds ecx,[gs:esp+eax]
00002E89  0400              add al,0x0
00002E8B  001C00            add [eax+eax],bl
00002E8E  0000              add [eax],al
00002E90  C80A0000          enter 0xa,0x0
00002E94  42                inc edx
00002E95  EF                out dx,eax
00002E96  FF                db 0xff
00002E97  FF0500000000      inc dword [dword 0x0]
00002E9D  41                inc ecx
00002E9E  0E                push cs
00002E9F  088502420D05      or [ebp+0x50d4202],al
00002EA5  41                inc ecx
00002EA6  C50C04            lds ecx,[esp+eax]
00002EA9  0400              add al,0x0
00002EAB  001C00            add [eax+eax],bl
00002EAE  0000              add [eax],al
00002EB0  E80A000027        call 0x27002ebf
00002EB5  EF                out dx,eax
00002EB6  FF                db 0xff
00002EB7  FF13              call [ebx]
00002EB9  0000              add [eax],al
00002EBB  0000              add [eax],al
00002EBD  41                inc ecx
00002EBE  0E                push cs
00002EBF  088502420D05      or [ebp+0x50d4202],al
00002EC5  4F                dec edi
00002EC6  C50C04            lds ecx,[esp+eax]
00002EC9  0400              add al,0x0
00002ECB  001C00            add [eax+eax],bl
00002ECE  0000              add [eax],al
00002ED0  080B              or [ebx],cl
00002ED2  0000              add [eax],al
00002ED4  1AEF              sbb ch,bh
00002ED6  FF                db 0xff
00002ED7  FF08              dec dword [eax]
00002ED9  0000              add [eax],al
00002EDB  0000              add [eax],al
00002EDD  41                inc ecx
00002EDE  0E                push cs
00002EDF  088502420D05      or [ebp+0x50d4202],al
00002EE5  44                inc esp
00002EE6  C50C04            lds ecx,[esp+eax]
00002EE9  0400              add al,0x0
00002EEB  001C00            add [eax+eax],bl
00002EEE  0000              add [eax],al
00002EF0  280B              sub [ebx],cl
00002EF2  0000              add [eax],al
00002EF4  02EF              add ch,bh
00002EF6  FF                db 0xff
00002EF7  FF0A              dec dword [edx]
00002EF9  0000              add [eax],al
00002EFB  0000              add [eax],al
00002EFD  41                inc ecx
00002EFE  0E                push cs
00002EFF  088502420D05      or [ebp+0x50d4202],al
00002F05  46                inc esi
00002F06  C50C04            lds ecx,[esp+eax]
00002F09  0400              add al,0x0
00002F0B  001C00            add [eax+eax],bl
00002F0E  0000              add [eax],al
00002F10  48                dec eax
00002F11  0B00              or eax,[eax]
00002F13  00EC              add ah,ch
00002F15  EE                out dx,al
00002F16  FF                db 0xff
00002F17  FF0D00000000      dec dword [dword 0x0]
00002F1D  41                inc ecx
00002F1E  0E                push cs
00002F1F  088502420D05      or [ebp+0x50d4202],al
00002F25  49                dec ecx
00002F26  C50C04            lds ecx,[esp+eax]
00002F29  0400              add al,0x0
00002F2B  001C00            add [eax+eax],bl
00002F2E  0000              add [eax],al
00002F30  680B0000D9        push dword 0xd900000b
00002F35  EE                out dx,al
00002F36  FF                db 0xff
00002F37  FF21              jmp [ecx]
00002F39  0000              add [eax],al
00002F3B  0000              add [eax],al
00002F3D  41                inc ecx
00002F3E  0E                push cs
00002F3F  088502420D05      or [ebp+0x50d4202],al
00002F45  5D                pop ebp
00002F46  C50C04            lds ecx,[esp+eax]
00002F49  0400              add al,0x0
00002F4B  0020              add [eax],ah
00002F4D  0000              add [eax],al
00002F4F  00880B0000DA      add [eax-0x25fffff5],cl
00002F55  EE                out dx,al
00002F56  FF                db 0xff
00002F57  FF33              push dword [ebx]
00002F59  0000              add [eax],al
00002F5B  0000              add [eax],al
00002F5D  41                inc ecx
00002F5E  0E                push cs
00002F5F  088502420D05      or [ebp+0x50d4202],al
00002F65  44                inc esp
00002F66  83036A            add dword [ebx],byte +0x6a
00002F69  C3                ret
00002F6A  41                inc ecx
00002F6B  C50C04            lds ecx,[esp+eax]
00002F6E  0400              add al,0x0
00002F70  1C00              sbb al,0x0
00002F72  0000              add [eax],al
00002F74  AC                lodsb
00002F75  0B00              or eax,[eax]
00002F77  00E9              add cl,ch
00002F79  EE                out dx,al
00002F7A  FF                db 0xff
00002F7B  FF13              call [ebx]
00002F7D  0000              add [eax],al
00002F7F  0000              add [eax],al
00002F81  41                inc ecx
00002F82  0E                push cs
00002F83  088502420D05      or [ebp+0x50d4202],al
00002F89  4F                dec edi
00002F8A  C50C04            lds ecx,[esp+eax]
00002F8D  0400              add al,0x0
00002F8F  001C00            add [eax+eax],bl
00002F92  0000              add [eax],al
00002F94  CC                int3
00002F95  0B00              or eax,[eax]
00002F97  00DC              add ah,bl
00002F99  EE                out dx,al
00002F9A  FF                db 0xff
00002F9B  FF21              jmp [ecx]
00002F9D  0000              add [eax],al
00002F9F  0000              add [eax],al
00002FA1  41                inc ecx
00002FA2  0E                push cs
00002FA3  088502420D05      or [ebp+0x50d4202],al
00002FA9  5D                pop ebp
00002FAA  C50C04            lds ecx,[esp+eax]
00002FAD  0400              add al,0x0
00002FAF  0020              add [eax],ah
00002FB1  0000              add [eax],al
00002FB3  00EC              add ah,ch
00002FB5  0B00              or eax,[eax]
00002FB7  00DD              add ch,bl
00002FB9  EE                out dx,al
00002FBA  FF                db 0xff
00002FBB  FF                db 0xff
00002FBC  3800              cmp [eax],al
00002FBE  0000              add [eax],al
00002FC0  00410E            add [ecx+0xe],al
00002FC3  088502420D05      or [ebp+0x50d4202],al
00002FC9  44                inc esp
00002FCA  83036F            add dword [ebx],byte +0x6f
00002FCD  C3                ret
00002FCE  41                inc ecx
00002FCF  C50C04            lds ecx,[esp+eax]
00002FD2  0400              add al,0x0
00002FD4  1C00              sbb al,0x0
00002FD6  0000              add [eax],al
00002FD8  100C00            adc [eax+eax],cl
00002FDB  00F1              add cl,dh
00002FDD  EE                out dx,al
00002FDE  FF                db 0xff
00002FDF  FF13              call [ebx]
00002FE1  0000              add [eax],al
00002FE3  0000              add [eax],al
00002FE5  41                inc ecx
00002FE6  0E                push cs
00002FE7  088502420D05      or [ebp+0x50d4202],al
00002FED  4F                dec edi
00002FEE  C50C04            lds ecx,[esp+eax]
00002FF1  0400              add al,0x0
00002FF3  002400            add [eax+eax],ah
00002FF6  0000              add [eax],al
00002FF8  300C00            xor [eax+eax],cl
00002FFB  00E4              add ah,ah
00002FFD  EE                out dx,al
00002FFE  FF                db 0xff
00002FFF  FF440000          inc dword [eax+eax+0x0]
00003003  0000              add [eax],al
00003005  41                inc ecx
00003006  0E                push cs
00003007  088502420D05      or [ebp+0x50d4202],al
0000300D  45                inc ebp
0000300E  8603              xchg al,[ebx]
00003010  830479C3          add dword [ecx+edi*2],byte -0x3d
00003014  41                inc ecx
00003015  C641C50C          mov byte [ecx-0x3b],0xc
00003019  0404              add al,0x4
0000301B  001C00            add [eax+eax],bl
0000301E  0000              add [eax],al
00003020  58                pop eax
00003021  0C00              or al,0x0
00003023  0000              add [eax],al
00003025  EF                out dx,eax
00003026  FF                db 0xff
00003027  FF13              call [ebx]
00003029  0000              add [eax],al
0000302B  0000              add [eax],al
0000302D  41                inc ecx
0000302E  0E                push cs
0000302F  088502420D05      or [ebp+0x50d4202],al
00003035  4F                dec edi
00003036  C50C04            lds ecx,[esp+eax]
00003039  0400              add al,0x0
0000303B  001C00            add [eax+eax],bl
0000303E  0000              add [eax],al
00003040  780C              js 0x304e
00003042  0000              add [eax],al
00003044  F3EE              rep out dx,al
00003046  FF                db 0xff
00003047  FF13              call [ebx]
00003049  0000              add [eax],al
0000304B  0000              add [eax],al
0000304D  41                inc ecx
0000304E  0E                push cs
0000304F  088502420D05      or [ebp+0x50d4202],al
00003055  4F                dec edi
00003056  C50C04            lds ecx,[esp+eax]
00003059  0400              add al,0x0
0000305B  001C00            add [eax+eax],bl
0000305E  0000              add [eax],al
00003060  98                cwde
00003061  0C00              or al,0x0
00003063  00E6              add dh,ah
00003065  EE                out dx,al
00003066  FF                db 0xff
00003067  FF2500000000      jmp [dword 0x0]
0000306D  41                inc ecx
0000306E  0E                push cs
0000306F  088502420D05      or [ebp+0x50d4202],al
00003075  61                popa
00003076  C50C04            lds ecx,[esp+eax]
00003079  0400              add al,0x0
0000307B  001C00            add [eax+eax],bl
0000307E  0000              add [eax],al
00003080  B80C0000EC        mov eax,0xec00000c
00003085  EE                out dx,al
00003086  FF                db 0xff
00003087  FF0A              dec dword [edx]
00003089  0000              add [eax],al
0000308B  0000              add [eax],al
0000308D  41                inc ecx
0000308E  0E                push cs
0000308F  088502420D05      or [ebp+0x50d4202],al
00003095  46                inc esi
00003096  C50C04            lds ecx,[esp+eax]
00003099  0400              add al,0x0
0000309B  001C00            add [eax+eax],bl
0000309E  0000              add [eax],al
000030A0  D80C00            fmul dword [eax+eax]
000030A3  00D6              add dh,dl
000030A5  EE                out dx,al
000030A6  FF                db 0xff
000030A7  FF08              dec dword [eax]
000030A9  0000              add [eax],al
000030AB  0000              add [eax],al
000030AD  41                inc ecx
000030AE  0E                push cs
000030AF  088502420D05      or [ebp+0x50d4202],al
000030B5  44                inc esp
000030B6  C50C04            lds ecx,[esp+eax]
000030B9  0400              add al,0x0
000030BB  001C00            add [eax+eax],bl
000030BE  0000              add [eax],al
000030C0  F8                clc
000030C1  0C00              or al,0x0
000030C3  00BEEEFFFF49      add [esi+0x49ffffee],bh
000030C9  0000              add [eax],al
000030CB  0000              add [eax],al
000030CD  41                inc ecx
000030CE  0E                push cs
000030CF  088502420D05      or [ebp+0x50d4202],al
000030D5  0245C5            add al,[ebp-0x3b]
000030D8  0C04              or al,0x4
000030DA  0400              add al,0x0
000030DC  1C00              sbb al,0x0
000030DE  0000              add [eax],al
000030E0  180D000056D9      sbb [dword 0xd9560000],cl
000030E6  FF                db 0xff
000030E7  FF                db 0xff
000030E8  3F                aas
000030E9  0000              add [eax],al
000030EB  0000              add [eax],al
000030ED  41                inc ecx
000030EE  0E                push cs
000030EF  088502420D05      or [ebp+0x50d4202],al
000030F5  7BC5              jpo 0x30bc
000030F7  0C04              or al,0x4
000030F9  0400              add al,0x0
000030FB  001C00            add [eax+eax],bl
000030FE  0000              add [eax],al
00003100  380D000075D9      cmp [dword 0xd9750000],cl
00003106  FF                db 0xff
00003107  FF1C00            call far [eax+eax]
0000310A  0000              add [eax],al
0000310C  00410E            add [ecx+0xe],al
0000310F  088502420D05      or [ebp+0x50d4202],al
00003115  58                pop eax
00003116  C50C04            lds ecx,[esp+eax]
00003119  0400              add al,0x0
0000311B  004800            add [eax+0x0],cl
0000311E  0000              add [eax],al
00003120  58                pop eax
00003121  0D0000ACEE        or eax,0xeeac0000
00003126  FF                db 0xff
00003127  FF5D00            call far [ebp+0x0]
0000312A  0000              add [eax],al
0000312C  00410E            add [ecx+0xe],al
0000312F  088502410E0C      or [ebp+0xc0e4102],al
00003135  8703              xchg eax,[ebx]
00003137  41                inc ecx
00003138  0E                push cs
00003139  108604410E14      adc [esi+0x140e4104],al
0000313F  83054E0E20690E    add dword [dword 0x69200e4e],byte +0xe
00003146  2444              and al,0x44
00003148  0E                push cs
00003149  28440E2C          sub [esi+ecx+0x2c],al
0000314D  41                inc ecx
0000314E  0E                push cs
0000314F  304D0E            xor [ebp+0xe],cl
00003152  20470E            and [edi+0xe],al
00003155  1441              adc al,0x41
00003157  C3                ret
00003158  0E                push cs
00003159  1041C6            adc [ecx-0x3a],al
0000315C  0E                push cs
0000315D  0C41              or al,0x41
0000315F  C7                db 0xc7
00003160  0E                push cs
00003161  0841C5            or [ecx-0x3b],al
00003164  0E                push cs
00003165  0400              add al,0x0
00003167  0010              add [eax],dl
00003169  0000              add [eax],al
0000316B  00A40D0000C0EE    add [ebp+ecx-0x11400000],ah
00003172  FF                db 0xff
00003173  FF02              inc dword [edx]
00003175  0000              add [eax],al
00003177  0000              add [eax],al
00003179  0000              add [eax],al
0000317B  0000              add [eax],al
0000317D  0000              add [eax],al
0000317F  00FF              add bh,bh
00003181  FF01              inc dword [ecx]
00003183  15193A0000        adc eax,0x3a19
00003188  6A05              push byte +0x5
0000318A  8803              mov [ebx],al
0000318C  008A01D801A0      add [edx-0x5ffe27ff],cl
00003192  0300              add eax,[eax]
00003194  9B031D0000FFFF    wait add ebx,[dword 0xffff0000]
0000319B  0100              add [eax],eax
0000319D  FF                db 0xff
0000319E  FF01              inc dword [ecx]
000031A0  085C0563          or [ebp+eax+0x63],bl
000031A4  007505            add [ebp+0x5],dh
000031A7  0000              add [eax],al
000031A9  FF                db 0xff
000031AA  FF01              inc dword [ecx]
000031AC  00FF              add bh,bh
000031AE  FF01              inc dword [ecx]
000031B0  0000              add [eax],al
000031B2  0000              add [eax],al
000031B4  FF00              inc dword [eax]
000031B6  2101              and [ecx],eax
000031B8  191D1A000072      sbb [dword 0x7200001a],ebx
000031BE  39B10201D301      cmp [ecx+0x1d30102],esi
000031C4  050000E002        add eax,0x2e00000
000031C9  46                inc esi
000031CA  A6                cmpsb
000031CB  0300              add eax,[eax]
000031CD  B203              mov dl,0x3
000031CF  0500000100        add eax,0x10000
000031D4  0000              add [eax],al
000031D6  0000              add [eax],al
000031D8  FF00              inc dword [eax]
000031DA  2101              and [ecx],eax
000031DC  191D1A000072      sbb [dword 0x7200001a],ebx
000031E2  39B10201D301      cmp [ecx+0x1d30102],esi
000031E8  050000E002        add eax,0x2e00000
000031ED  46                inc esi
000031EE  A6                cmpsb
000031EF  0300              add eax,[eax]
000031F1  B203              mov dl,0x3
000031F3  0500000100        add eax,0x10000
000031F8  0000              add [eax],al
000031FA  0000              add [eax],al
000031FC  FF                db 0xff
000031FD  FF01              inc dword [ecx]
000031FF  0000              add [eax],al
00003201  0000              add [eax],al
00003203  0000              add [eax],al
00003205  0000              add [eax],al
00003207  0000              add [eax],al
00003209  0000              add [eax],al
0000320B  0000              add [eax],al
0000320D  0000              add [eax],al
0000320F  0000              add [eax],al
00003211  0000              add [eax],al
00003213  0000              add [eax],al
00003215  0000              add [eax],al
00003217  0000              add [eax],al
00003219  0000              add [eax],al
0000321B  0000              add [eax],al
0000321D  0000              add [eax],al
0000321F  0000              add [eax],al
00003221  0000              add [eax],al
00003223  0000              add [eax],al
00003225  0000              add [eax],al
00003227  0000              add [eax],al
00003229  0000              add [eax],al
0000322B  0000              add [eax],al
0000322D  0000              add [eax],al
0000322F  0000              add [eax],al
00003231  0000              add [eax],al
00003233  0000              add [eax],al
00003235  0000              add [eax],al
00003237  0000              add [eax],al
00003239  0000              add [eax],al
0000323B  0000              add [eax],al
0000323D  0000              add [eax],al
0000323F  0000              add [eax],al
00003241  0000              add [eax],al
00003243  0000              add [eax],al
00003245  0000              add [eax],al
00003247  0000              add [eax],al
00003249  0000              add [eax],al
0000324B  0000              add [eax],al
0000324D  0000              add [eax],al
0000324F  0000              add [eax],al
00003251  0000              add [eax],al
00003253  0000              add [eax],al
00003255  0000              add [eax],al
00003257  0000              add [eax],al
00003259  0000              add [eax],al
0000325B  0000              add [eax],al
0000325D  0000              add [eax],al
0000325F  0000              add [eax],al
00003261  0000              add [eax],al
00003263  0000              add [eax],al
00003265  0000              add [eax],al
00003267  0000              add [eax],al
00003269  0000              add [eax],al
0000326B  0000              add [eax],al
0000326D  0000              add [eax],al
0000326F  0000              add [eax],al
00003271  0000              add [eax],al
00003273  0000              add [eax],al
00003275  0000              add [eax],al
00003277  0000              add [eax],al
00003279  0000              add [eax],al
0000327B  0000              add [eax],al
0000327D  0000              add [eax],al
0000327F  0000              add [eax],al
00003281  0000              add [eax],al
00003283  0000              add [eax],al
00003285  0000              add [eax],al
00003287  0000              add [eax],al
00003289  0000              add [eax],al
0000328B  0000              add [eax],al
0000328D  0000              add [eax],al
0000328F  0000              add [eax],al
00003291  0000              add [eax],al
00003293  0000              add [eax],al
00003295  0000              add [eax],al
00003297  0000              add [eax],al
00003299  0000              add [eax],al
0000329B  0000              add [eax],al
0000329D  0000              add [eax],al
0000329F  0000              add [eax],al
000032A1  0000              add [eax],al
000032A3  0000              add [eax],al
000032A5  0000              add [eax],al
000032A7  0000              add [eax],al
000032A9  0000              add [eax],al
000032AB  0000              add [eax],al
000032AD  0000              add [eax],al
000032AF  0000              add [eax],al
000032B1  0000              add [eax],al
000032B3  0000              add [eax],al
000032B5  0000              add [eax],al
000032B7  0000              add [eax],al
000032B9  0000              add [eax],al
000032BB  0000              add [eax],al
000032BD  0000              add [eax],al
000032BF  0000              add [eax],al
000032C1  0000              add [eax],al
000032C3  0000              add [eax],al
000032C5  0000              add [eax],al
000032C7  0000              add [eax],al
000032C9  0000              add [eax],al
000032CB  0000              add [eax],al
000032CD  0000              add [eax],al
000032CF  0000              add [eax],al
000032D1  0000              add [eax],al
000032D3  0000              add [eax],al
000032D5  0000              add [eax],al
000032D7  0000              add [eax],al
000032D9  0000              add [eax],al
000032DB  0000              add [eax],al
000032DD  0000              add [eax],al
000032DF  0000              add [eax],al
000032E1  0000              add [eax],al
000032E3  0000              add [eax],al
000032E5  0000              add [eax],al
000032E7  0000              add [eax],al
000032E9  0000              add [eax],al
000032EB  0000              add [eax],al
000032ED  0000              add [eax],al
000032EF  0000              add [eax],al
000032F1  0000              add [eax],al
000032F3  0000              add [eax],al
000032F5  0000              add [eax],al
000032F7  0000              add [eax],al
000032F9  0000              add [eax],al
000032FB  0000              add [eax],al
000032FD  0000              add [eax],al
000032FF  0000              add [eax],al
00003301  0000              add [eax],al
00003303  0000              add [eax],al
00003305  0000              add [eax],al
00003307  0000              add [eax],al
00003309  0000              add [eax],al
0000330B  0000              add [eax],al
0000330D  0000              add [eax],al
0000330F  0000              add [eax],al
00003311  0000              add [eax],al
00003313  0000              add [eax],al
00003315  0000              add [eax],al
00003317  0000              add [eax],al
00003319  0000              add [eax],al
0000331B  0000              add [eax],al
0000331D  0000              add [eax],al
0000331F  0000              add [eax],al
00003321  0000              add [eax],al
00003323  0000              add [eax],al
00003325  0000              add [eax],al
00003327  0000              add [eax],al
00003329  0000              add [eax],al
0000332B  0000              add [eax],al
0000332D  0000              add [eax],al
0000332F  0000              add [eax],al
00003331  0000              add [eax],al
00003333  0000              add [eax],al
00003335  0000              add [eax],al
00003337  0000              add [eax],al
00003339  0000              add [eax],al
0000333B  0000              add [eax],al
0000333D  0000              add [eax],al
0000333F  0000              add [eax],al
00003341  0000              add [eax],al
00003343  0000              add [eax],al
00003345  0000              add [eax],al
00003347  0000              add [eax],al
00003349  0000              add [eax],al
0000334B  0000              add [eax],al
0000334D  0000              add [eax],al
0000334F  0000              add [eax],al
00003351  0000              add [eax],al
00003353  0000              add [eax],al
00003355  0000              add [eax],al
00003357  0000              add [eax],al
00003359  0000              add [eax],al
0000335B  0000              add [eax],al
0000335D  0000              add [eax],al
0000335F  0000              add [eax],al
00003361  0000              add [eax],al
00003363  0000              add [eax],al
00003365  0000              add [eax],al
00003367  0000              add [eax],al
00003369  0000              add [eax],al
0000336B  0000              add [eax],al
0000336D  0000              add [eax],al
0000336F  0000              add [eax],al
00003371  0000              add [eax],al
00003373  0000              add [eax],al
00003375  0000              add [eax],al
00003377  0000              add [eax],al
00003379  0000              add [eax],al
0000337B  0000              add [eax],al
0000337D  0000              add [eax],al
0000337F  0000              add [eax],al
00003381  0000              add [eax],al
00003383  0000              add [eax],al
00003385  0000              add [eax],al
00003387  0000              add [eax],al
00003389  0000              add [eax],al
0000338B  0000              add [eax],al
0000338D  0000              add [eax],al
0000338F  0000              add [eax],al
00003391  0000              add [eax],al
00003393  0000              add [eax],al
00003395  0000              add [eax],al
00003397  0000              add [eax],al
00003399  0000              add [eax],al
0000339B  0000              add [eax],al
0000339D  0000              add [eax],al
0000339F  0000              add [eax],al
000033A1  0000              add [eax],al
000033A3  0000              add [eax],al
000033A5  0000              add [eax],al
000033A7  0000              add [eax],al
000033A9  0000              add [eax],al
000033AB  0000              add [eax],al
000033AD  0000              add [eax],al
000033AF  0000              add [eax],al
000033B1  0000              add [eax],al
000033B3  0000              add [eax],al
000033B5  0000              add [eax],al
000033B7  0000              add [eax],al
000033B9  0000              add [eax],al
000033BB  0000              add [eax],al
000033BD  0000              add [eax],al
000033BF  0000              add [eax],al
000033C1  0000              add [eax],al
000033C3  0000              add [eax],al
000033C5  0000              add [eax],al
000033C7  0000              add [eax],al
000033C9  0000              add [eax],al
000033CB  0000              add [eax],al
000033CD  0000              add [eax],al
000033CF  0000              add [eax],al
000033D1  0000              add [eax],al
000033D3  0000              add [eax],al
000033D5  0000              add [eax],al
000033D7  0000              add [eax],al
000033D9  0000              add [eax],al
000033DB  0000              add [eax],al
000033DD  0000              add [eax],al
000033DF  0000              add [eax],al
000033E1  0000              add [eax],al
000033E3  0000              add [eax],al
000033E5  0000              add [eax],al
000033E7  0000              add [eax],al
000033E9  0000              add [eax],al
000033EB  0000              add [eax],al
000033ED  0000              add [eax],al
000033EF  0000              add [eax],al
000033F1  0000              add [eax],al
000033F3  0000              add [eax],al
000033F5  0000              add [eax],al
000033F7  0000              add [eax],al
000033F9  0000              add [eax],al
000033FB  0000              add [eax],al
000033FD  0000              add [eax],al
000033FF  0000              add [eax],al
00003401  0000              add [eax],al
00003403  0000              add [eax],al
00003405  0000              add [eax],al
00003407  0000              add [eax],al
00003409  0000              add [eax],al
0000340B  0000              add [eax],al
0000340D  0000              add [eax],al
0000340F  0000              add [eax],al
00003411  0000              add [eax],al
00003413  0000              add [eax],al
00003415  0000              add [eax],al
00003417  0000              add [eax],al
00003419  0000              add [eax],al
0000341B  0000              add [eax],al
0000341D  0000              add [eax],al
0000341F  0000              add [eax],al
00003421  0000              add [eax],al
00003423  0000              add [eax],al
00003425  0000              add [eax],al
00003427  0000              add [eax],al
00003429  0000              add [eax],al
0000342B  0000              add [eax],al
0000342D  0000              add [eax],al
0000342F  0000              add [eax],al
00003431  0000              add [eax],al
00003433  0000              add [eax],al
00003435  0000              add [eax],al
00003437  0000              add [eax],al
00003439  0000              add [eax],al
0000343B  0000              add [eax],al
0000343D  0000              add [eax],al
0000343F  0000              add [eax],al
00003441  0000              add [eax],al
00003443  0000              add [eax],al
00003445  0000              add [eax],al
00003447  0000              add [eax],al
00003449  0000              add [eax],al
0000344B  0000              add [eax],al
0000344D  0000              add [eax],al
0000344F  0000              add [eax],al
00003451  0000              add [eax],al
00003453  0000              add [eax],al
00003455  0000              add [eax],al
00003457  0000              add [eax],al
00003459  0000              add [eax],al
0000345B  0000              add [eax],al
0000345D  0000              add [eax],al
0000345F  0000              add [eax],al
00003461  0000              add [eax],al
00003463  0000              add [eax],al
00003465  0000              add [eax],al
00003467  0000              add [eax],al
00003469  0000              add [eax],al
0000346B  0000              add [eax],al
0000346D  0000              add [eax],al
0000346F  0000              add [eax],al
00003471  0000              add [eax],al
00003473  0000              add [eax],al
00003475  0000              add [eax],al
00003477  0000              add [eax],al
00003479  0000              add [eax],al
0000347B  0000              add [eax],al
0000347D  0000              add [eax],al
0000347F  0000              add [eax],al
00003481  0000              add [eax],al
00003483  0000              add [eax],al
00003485  0000              add [eax],al
00003487  0000              add [eax],al
00003489  0000              add [eax],al
0000348B  0000              add [eax],al
0000348D  0000              add [eax],al
0000348F  0000              add [eax],al
00003491  0000              add [eax],al
00003493  0000              add [eax],al
00003495  0000              add [eax],al
00003497  0000              add [eax],al
00003499  0000              add [eax],al
0000349B  0000              add [eax],al
0000349D  0000              add [eax],al
0000349F  0000              add [eax],al
000034A1  0000              add [eax],al
000034A3  0000              add [eax],al
000034A5  0000              add [eax],al
000034A7  0000              add [eax],al
000034A9  0000              add [eax],al
000034AB  0000              add [eax],al
000034AD  0000              add [eax],al
000034AF  0000              add [eax],al
000034B1  0000              add [eax],al
000034B3  0000              add [eax],al
000034B5  0000              add [eax],al
000034B7  0000              add [eax],al
000034B9  0000              add [eax],al
000034BB  0000              add [eax],al
000034BD  0000              add [eax],al
000034BF  0000              add [eax],al
000034C1  0000              add [eax],al
000034C3  0000              add [eax],al
000034C5  0000              add [eax],al
000034C7  0000              add [eax],al
000034C9  0000              add [eax],al
000034CB  0000              add [eax],al
000034CD  0000              add [eax],al
000034CF  0000              add [eax],al
000034D1  0000              add [eax],al
000034D3  0000              add [eax],al
000034D5  0000              add [eax],al
000034D7  0000              add [eax],al
000034D9  0000              add [eax],al
000034DB  0000              add [eax],al
000034DD  0000              add [eax],al
000034DF  0000              add [eax],al
000034E1  0000              add [eax],al
000034E3  0000              add [eax],al
000034E5  0000              add [eax],al
000034E7  0000              add [eax],al
000034E9  0000              add [eax],al
000034EB  0000              add [eax],al
000034ED  0000              add [eax],al
000034EF  0000              add [eax],al
000034F1  0000              add [eax],al
000034F3  0000              add [eax],al
000034F5  0000              add [eax],al
000034F7  0000              add [eax],al
000034F9  0000              add [eax],al
000034FB  0000              add [eax],al
000034FD  0000              add [eax],al
000034FF  0000              add [eax],al
00003501  0000              add [eax],al
00003503  0000              add [eax],al
00003505  0000              add [eax],al
00003507  0000              add [eax],al
00003509  0000              add [eax],al
0000350B  0000              add [eax],al
0000350D  0000              add [eax],al
0000350F  0000              add [eax],al
00003511  0000              add [eax],al
00003513  0000              add [eax],al
00003515  0000              add [eax],al
00003517  0000              add [eax],al
00003519  0000              add [eax],al
0000351B  0000              add [eax],al
0000351D  0000              add [eax],al
0000351F  0000              add [eax],al
00003521  0000              add [eax],al
00003523  0000              add [eax],al
00003525  0000              add [eax],al
00003527  0000              add [eax],al
00003529  0000              add [eax],al
0000352B  0000              add [eax],al
0000352D  0000              add [eax],al
0000352F  0000              add [eax],al
00003531  0000              add [eax],al
00003533  0000              add [eax],al
00003535  0000              add [eax],al
00003537  0000              add [eax],al
00003539  0000              add [eax],al
0000353B  0000              add [eax],al
0000353D  0000              add [eax],al
0000353F  0000              add [eax],al
00003541  0000              add [eax],al
00003543  0000              add [eax],al
00003545  0000              add [eax],al
00003547  0000              add [eax],al
00003549  0000              add [eax],al
0000354B  0000              add [eax],al
0000354D  0000              add [eax],al
0000354F  0000              add [eax],al
00003551  0000              add [eax],al
00003553  0000              add [eax],al
00003555  0000              add [eax],al
00003557  0000              add [eax],al
00003559  0000              add [eax],al
0000355B  0000              add [eax],al
0000355D  0000              add [eax],al
0000355F  0000              add [eax],al
00003561  0000              add [eax],al
00003563  0000              add [eax],al
00003565  0000              add [eax],al
00003567  0000              add [eax],al
00003569  0000              add [eax],al
0000356B  0000              add [eax],al
0000356D  0000              add [eax],al
0000356F  0000              add [eax],al
00003571  0000              add [eax],al
00003573  0000              add [eax],al
00003575  0000              add [eax],al
00003577  0000              add [eax],al
00003579  0000              add [eax],al
0000357B  0000              add [eax],al
0000357D  0000              add [eax],al
0000357F  0000              add [eax],al
00003581  0000              add [eax],al
00003583  0000              add [eax],al
00003585  0000              add [eax],al
00003587  0000              add [eax],al
00003589  0000              add [eax],al
0000358B  0000              add [eax],al
0000358D  0000              add [eax],al
0000358F  0000              add [eax],al
00003591  0000              add [eax],al
00003593  0000              add [eax],al
00003595  0000              add [eax],al
00003597  0000              add [eax],al
00003599  0000              add [eax],al
0000359B  0000              add [eax],al
0000359D  0000              add [eax],al
0000359F  0000              add [eax],al
000035A1  0000              add [eax],al
000035A3  0000              add [eax],al
000035A5  0000              add [eax],al
000035A7  0000              add [eax],al
000035A9  0000              add [eax],al
000035AB  0000              add [eax],al
000035AD  0000              add [eax],al
000035AF  0000              add [eax],al
000035B1  0000              add [eax],al
000035B3  0000              add [eax],al
000035B5  0000              add [eax],al
000035B7  0000              add [eax],al
000035B9  0000              add [eax],al
000035BB  0000              add [eax],al
000035BD  0000              add [eax],al
000035BF  0000              add [eax],al
000035C1  0000              add [eax],al
000035C3  0000              add [eax],al
000035C5  0000              add [eax],al
000035C7  0000              add [eax],al
000035C9  0000              add [eax],al
000035CB  0000              add [eax],al
000035CD  0000              add [eax],al
000035CF  0000              add [eax],al
000035D1  0000              add [eax],al
000035D3  0000              add [eax],al
000035D5  0000              add [eax],al
000035D7  0000              add [eax],al
000035D9  0000              add [eax],al
000035DB  0000              add [eax],al
000035DD  0000              add [eax],al
000035DF  0000              add [eax],al
000035E1  0000              add [eax],al
000035E3  0000              add [eax],al
000035E5  0000              add [eax],al
000035E7  0000              add [eax],al
000035E9  0000              add [eax],al
000035EB  0000              add [eax],al
000035ED  0000              add [eax],al
000035EF  0000              add [eax],al
000035F1  0000              add [eax],al
000035F3  0000              add [eax],al
000035F5  0000              add [eax],al
000035F7  0000              add [eax],al
000035F9  0000              add [eax],al
000035FB  0000              add [eax],al
000035FD  0000              add [eax],al
000035FF  0000              add [eax],al
00003601  0000              add [eax],al
00003603  0000              add [eax],al
00003605  0000              add [eax],al
00003607  0000              add [eax],al
00003609  0000              add [eax],al
0000360B  0000              add [eax],al
0000360D  0000              add [eax],al
0000360F  0000              add [eax],al
00003611  0000              add [eax],al
00003613  0000              add [eax],al
00003615  0000              add [eax],al
00003617  0000              add [eax],al
00003619  0000              add [eax],al
0000361B  0000              add [eax],al
0000361D  0000              add [eax],al
0000361F  0000              add [eax],al
00003621  0000              add [eax],al
00003623  0000              add [eax],al
00003625  0000              add [eax],al
00003627  0000              add [eax],al
00003629  0000              add [eax],al
0000362B  0000              add [eax],al
0000362D  0000              add [eax],al
0000362F  0000              add [eax],al
00003631  0000              add [eax],al
00003633  0000              add [eax],al
00003635  0000              add [eax],al
00003637  0000              add [eax],al
00003639  0000              add [eax],al
0000363B  0000              add [eax],al
0000363D  0000              add [eax],al
0000363F  0000              add [eax],al
00003641  0000              add [eax],al
00003643  0000              add [eax],al
00003645  0000              add [eax],al
00003647  0000              add [eax],al
00003649  0000              add [eax],al
0000364B  0000              add [eax],al
0000364D  0000              add [eax],al
0000364F  0000              add [eax],al
00003651  0000              add [eax],al
00003653  0000              add [eax],al
00003655  0000              add [eax],al
00003657  0000              add [eax],al
00003659  0000              add [eax],al
0000365B  0000              add [eax],al
0000365D  0000              add [eax],al
0000365F  0000              add [eax],al
00003661  0000              add [eax],al
00003663  0000              add [eax],al
00003665  0000              add [eax],al
00003667  0000              add [eax],al
00003669  0000              add [eax],al
0000366B  0000              add [eax],al
0000366D  0000              add [eax],al
0000366F  0000              add [eax],al
00003671  0000              add [eax],al
00003673  0000              add [eax],al
00003675  0000              add [eax],al
00003677  0000              add [eax],al
00003679  0000              add [eax],al
0000367B  0000              add [eax],al
0000367D  0000              add [eax],al
0000367F  0000              add [eax],al
00003681  0000              add [eax],al
00003683  0000              add [eax],al
00003685  0000              add [eax],al
00003687  0000              add [eax],al
00003689  0000              add [eax],al
0000368B  0000              add [eax],al
0000368D  0000              add [eax],al
0000368F  0000              add [eax],al
00003691  0000              add [eax],al
00003693  0000              add [eax],al
00003695  0000              add [eax],al
00003697  0000              add [eax],al
00003699  0000              add [eax],al
0000369B  0000              add [eax],al
0000369D  0000              add [eax],al
0000369F  0000              add [eax],al
000036A1  0000              add [eax],al
000036A3  0000              add [eax],al
000036A5  0000              add [eax],al
000036A7  0000              add [eax],al
000036A9  0000              add [eax],al
000036AB  0000              add [eax],al
000036AD  0000              add [eax],al
000036AF  0000              add [eax],al
000036B1  0000              add [eax],al
000036B3  0000              add [eax],al
000036B5  0000              add [eax],al
000036B7  0000              add [eax],al
000036B9  0000              add [eax],al
000036BB  0000              add [eax],al
000036BD  0000              add [eax],al
000036BF  0000              add [eax],al
000036C1  0000              add [eax],al
000036C3  0000              add [eax],al
000036C5  0000              add [eax],al
000036C7  0000              add [eax],al
000036C9  0000              add [eax],al
000036CB  0000              add [eax],al
000036CD  0000              add [eax],al
000036CF  0000              add [eax],al
000036D1  0000              add [eax],al
000036D3  0000              add [eax],al
000036D5  0000              add [eax],al
000036D7  0000              add [eax],al
000036D9  0000              add [eax],al
000036DB  0000              add [eax],al
000036DD  0000              add [eax],al
000036DF  0000              add [eax],al
000036E1  0000              add [eax],al
000036E3  0000              add [eax],al
000036E5  0000              add [eax],al
000036E7  0000              add [eax],al
000036E9  0000              add [eax],al
000036EB  0000              add [eax],al
000036ED  0000              add [eax],al
000036EF  0000              add [eax],al
000036F1  0000              add [eax],al
000036F3  0000              add [eax],al
000036F5  0000              add [eax],al
000036F7  0000              add [eax],al
000036F9  0000              add [eax],al
000036FB  0000              add [eax],al
000036FD  0000              add [eax],al
000036FF  0000              add [eax],al
00003701  0000              add [eax],al
00003703  0000              add [eax],al
00003705  0000              add [eax],al
00003707  0000              add [eax],al
00003709  0000              add [eax],al
0000370B  0000              add [eax],al
0000370D  0000              add [eax],al
0000370F  0000              add [eax],al
00003711  0000              add [eax],al
00003713  0000              add [eax],al
00003715  0000              add [eax],al
00003717  0000              add [eax],al
00003719  0000              add [eax],al
0000371B  0000              add [eax],al
0000371D  0000              add [eax],al
0000371F  0000              add [eax],al
00003721  0000              add [eax],al
00003723  0000              add [eax],al
00003725  0000              add [eax],al
00003727  0000              add [eax],al
00003729  0000              add [eax],al
0000372B  0000              add [eax],al
0000372D  0000              add [eax],al
0000372F  0000              add [eax],al
00003731  0000              add [eax],al
00003733  0000              add [eax],al
00003735  0000              add [eax],al
00003737  0000              add [eax],al
00003739  0000              add [eax],al
0000373B  0000              add [eax],al
0000373D  0000              add [eax],al
0000373F  0000              add [eax],al
00003741  0000              add [eax],al
00003743  0000              add [eax],al
00003745  0000              add [eax],al
00003747  0000              add [eax],al
00003749  0000              add [eax],al
0000374B  0000              add [eax],al
0000374D  0000              add [eax],al
0000374F  0000              add [eax],al
00003751  0000              add [eax],al
00003753  0000              add [eax],al
00003755  0000              add [eax],al
00003757  0000              add [eax],al
00003759  0000              add [eax],al
0000375B  0000              add [eax],al
0000375D  0000              add [eax],al
0000375F  0000              add [eax],al
00003761  0000              add [eax],al
00003763  0000              add [eax],al
00003765  0000              add [eax],al
00003767  0000              add [eax],al
00003769  0000              add [eax],al
0000376B  0000              add [eax],al
0000376D  0000              add [eax],al
0000376F  0000              add [eax],al
00003771  0000              add [eax],al
00003773  0000              add [eax],al
00003775  0000              add [eax],al
00003777  0000              add [eax],al
00003779  0000              add [eax],al
0000377B  0000              add [eax],al
0000377D  0000              add [eax],al
0000377F  0000              add [eax],al
00003781  0000              add [eax],al
00003783  0000              add [eax],al
00003785  0000              add [eax],al
00003787  0000              add [eax],al
00003789  0000              add [eax],al
0000378B  0000              add [eax],al
0000378D  0000              add [eax],al
0000378F  0000              add [eax],al
00003791  0000              add [eax],al
00003793  0000              add [eax],al
00003795  0000              add [eax],al
00003797  0000              add [eax],al
00003799  0000              add [eax],al
0000379B  0000              add [eax],al
0000379D  0000              add [eax],al
0000379F  0000              add [eax],al
000037A1  0000              add [eax],al
000037A3  0000              add [eax],al
000037A5  0000              add [eax],al
000037A7  0000              add [eax],al
000037A9  0000              add [eax],al
000037AB  0000              add [eax],al
000037AD  0000              add [eax],al
000037AF  0000              add [eax],al
000037B1  0000              add [eax],al
000037B3  0000              add [eax],al
000037B5  0000              add [eax],al
000037B7  0000              add [eax],al
000037B9  0000              add [eax],al
000037BB  0000              add [eax],al
000037BD  0000              add [eax],al
000037BF  0000              add [eax],al
000037C1  0000              add [eax],al
000037C3  0000              add [eax],al
000037C5  0000              add [eax],al
000037C7  0000              add [eax],al
000037C9  0000              add [eax],al
000037CB  0000              add [eax],al
000037CD  0000              add [eax],al
000037CF  0000              add [eax],al
000037D1  0000              add [eax],al
000037D3  0000              add [eax],al
000037D5  0000              add [eax],al
000037D7  0000              add [eax],al
000037D9  0000              add [eax],al
000037DB  0000              add [eax],al
000037DD  0000              add [eax],al
000037DF  0000              add [eax],al
000037E1  0000              add [eax],al
000037E3  0000              add [eax],al
000037E5  0000              add [eax],al
000037E7  0000              add [eax],al
000037E9  0000              add [eax],al
000037EB  0000              add [eax],al
000037ED  0000              add [eax],al
000037EF  0000              add [eax],al
000037F1  0000              add [eax],al
000037F3  0000              add [eax],al
000037F5  0000              add [eax],al
000037F7  0000              add [eax],al
000037F9  0000              add [eax],al
000037FB  0000              add [eax],al
000037FD  0000              add [eax],al
000037FF  0000              add [eax],al
00003801  0000              add [eax],al
00003803  0000              add [eax],al
00003805  0000              add [eax],al
00003807  0000              add [eax],al
00003809  0000              add [eax],al
0000380B  0000              add [eax],al
0000380D  0000              add [eax],al
0000380F  0000              add [eax],al
00003811  0000              add [eax],al
00003813  0000              add [eax],al
00003815  0000              add [eax],al
00003817  0000              add [eax],al
00003819  0000              add [eax],al
0000381B  0000              add [eax],al
0000381D  0000              add [eax],al
0000381F  0000              add [eax],al
00003821  0000              add [eax],al
00003823  0000              add [eax],al
00003825  0000              add [eax],al
00003827  0000              add [eax],al
00003829  0000              add [eax],al
0000382B  0000              add [eax],al
0000382D  0000              add [eax],al
0000382F  0000              add [eax],al
00003831  0000              add [eax],al
00003833  0000              add [eax],al
00003835  0000              add [eax],al
00003837  0000              add [eax],al
00003839  0000              add [eax],al
0000383B  0000              add [eax],al
0000383D  0000              add [eax],al
0000383F  0000              add [eax],al
00003841  0000              add [eax],al
00003843  0000              add [eax],al
00003845  0000              add [eax],al
00003847  0000              add [eax],al
00003849  0000              add [eax],al
0000384B  0000              add [eax],al
0000384D  0000              add [eax],al
0000384F  0000              add [eax],al
00003851  0000              add [eax],al
00003853  0000              add [eax],al
00003855  0000              add [eax],al
00003857  0000              add [eax],al
00003859  0000              add [eax],al
0000385B  0000              add [eax],al
0000385D  0000              add [eax],al
0000385F  0000              add [eax],al
00003861  0000              add [eax],al
00003863  0000              add [eax],al
00003865  0000              add [eax],al
00003867  0000              add [eax],al
00003869  0000              add [eax],al
0000386B  0000              add [eax],al
0000386D  0000              add [eax],al
0000386F  0000              add [eax],al
00003871  0000              add [eax],al
00003873  0000              add [eax],al
00003875  0000              add [eax],al
00003877  0000              add [eax],al
00003879  0000              add [eax],al
0000387B  0000              add [eax],al
0000387D  0000              add [eax],al
0000387F  0000              add [eax],al
00003881  0000              add [eax],al
00003883  0000              add [eax],al
00003885  0000              add [eax],al
00003887  0000              add [eax],al
00003889  0000              add [eax],al
0000388B  0000              add [eax],al
0000388D  0000              add [eax],al
0000388F  0000              add [eax],al
00003891  0000              add [eax],al
00003893  0000              add [eax],al
00003895  0000              add [eax],al
00003897  0000              add [eax],al
00003899  0000              add [eax],al
0000389B  0000              add [eax],al
0000389D  0000              add [eax],al
0000389F  0000              add [eax],al
000038A1  0000              add [eax],al
000038A3  0000              add [eax],al
000038A5  0000              add [eax],al
000038A7  0000              add [eax],al
000038A9  0000              add [eax],al
000038AB  0000              add [eax],al
000038AD  0000              add [eax],al
000038AF  0000              add [eax],al
000038B1  0000              add [eax],al
000038B3  0000              add [eax],al
000038B5  0000              add [eax],al
000038B7  0000              add [eax],al
000038B9  0000              add [eax],al
000038BB  0000              add [eax],al
000038BD  0000              add [eax],al
000038BF  0000              add [eax],al
000038C1  0000              add [eax],al
000038C3  0000              add [eax],al
000038C5  0000              add [eax],al
000038C7  0000              add [eax],al
000038C9  0000              add [eax],al
000038CB  0000              add [eax],al
000038CD  0000              add [eax],al
000038CF  0000              add [eax],al
000038D1  0000              add [eax],al
000038D3  0000              add [eax],al
000038D5  0000              add [eax],al
000038D7  0000              add [eax],al
000038D9  0000              add [eax],al
000038DB  0000              add [eax],al
000038DD  0000              add [eax],al
000038DF  0000              add [eax],al
000038E1  0000              add [eax],al
000038E3  0000              add [eax],al
000038E5  0000              add [eax],al
000038E7  0000              add [eax],al
000038E9  0000              add [eax],al
000038EB  0000              add [eax],al
000038ED  0000              add [eax],al
000038EF  0000              add [eax],al
000038F1  0000              add [eax],al
000038F3  0000              add [eax],al
000038F5  0000              add [eax],al
000038F7  0000              add [eax],al
000038F9  0000              add [eax],al
000038FB  0000              add [eax],al
000038FD  0000              add [eax],al
000038FF  0000              add [eax],al
00003901  0000              add [eax],al
00003903  0000              add [eax],al
00003905  0000              add [eax],al
00003907  0000              add [eax],al
00003909  0000              add [eax],al
0000390B  0000              add [eax],al
0000390D  0000              add [eax],al
0000390F  0000              add [eax],al
00003911  0000              add [eax],al
00003913  0000              add [eax],al
00003915  0000              add [eax],al
00003917  0000              add [eax],al
00003919  0000              add [eax],al
0000391B  0000              add [eax],al
0000391D  0000              add [eax],al
0000391F  0000              add [eax],al
00003921  0000              add [eax],al
00003923  0000              add [eax],al
00003925  0000              add [eax],al
00003927  0000              add [eax],al
00003929  0000              add [eax],al
0000392B  0000              add [eax],al
0000392D  0000              add [eax],al
0000392F  0000              add [eax],al
00003931  0000              add [eax],al
00003933  0000              add [eax],al
00003935  0000              add [eax],al
00003937  0000              add [eax],al
00003939  0000              add [eax],al
0000393B  0000              add [eax],al
0000393D  0000              add [eax],al
0000393F  0000              add [eax],al
00003941  0000              add [eax],al
00003943  0000              add [eax],al
00003945  0000              add [eax],al
00003947  0000              add [eax],al
00003949  0000              add [eax],al
0000394B  0000              add [eax],al
0000394D  0000              add [eax],al
0000394F  0000              add [eax],al
00003951  0000              add [eax],al
00003953  0000              add [eax],al
00003955  0000              add [eax],al
00003957  0000              add [eax],al
00003959  0000              add [eax],al
0000395B  0000              add [eax],al
0000395D  0000              add [eax],al
0000395F  0000              add [eax],al
00003961  0000              add [eax],al
00003963  0000              add [eax],al
00003965  0000              add [eax],al
00003967  0000              add [eax],al
00003969  0000              add [eax],al
0000396B  0000              add [eax],al
0000396D  0000              add [eax],al
0000396F  0000              add [eax],al
00003971  0000              add [eax],al
00003973  0000              add [eax],al
00003975  0000              add [eax],al
00003977  0000              add [eax],al
00003979  0000              add [eax],al
0000397B  0000              add [eax],al
0000397D  0000              add [eax],al
0000397F  0000              add [eax],al
00003981  0000              add [eax],al
00003983  0000              add [eax],al
00003985  0000              add [eax],al
00003987  0000              add [eax],al
00003989  0000              add [eax],al
0000398B  0000              add [eax],al
0000398D  0000              add [eax],al
0000398F  0000              add [eax],al
00003991  0000              add [eax],al
00003993  0000              add [eax],al
00003995  0000              add [eax],al
00003997  0000              add [eax],al
00003999  0000              add [eax],al
0000399B  0000              add [eax],al
0000399D  0000              add [eax],al
0000399F  0000              add [eax],al
000039A1  0000              add [eax],al
000039A3  0000              add [eax],al
000039A5  0000              add [eax],al
000039A7  0000              add [eax],al
000039A9  0000              add [eax],al
000039AB  0000              add [eax],al
000039AD  0000              add [eax],al
000039AF  0000              add [eax],al
000039B1  0000              add [eax],al
000039B3  0000              add [eax],al
000039B5  0000              add [eax],al
000039B7  0000              add [eax],al
000039B9  0000              add [eax],al
000039BB  0000              add [eax],al
000039BD  0000              add [eax],al
000039BF  0000              add [eax],al
000039C1  0000              add [eax],al
000039C3  0000              add [eax],al
000039C5  0000              add [eax],al
000039C7  0000              add [eax],al
000039C9  0000              add [eax],al
000039CB  0000              add [eax],al
000039CD  0000              add [eax],al
000039CF  0000              add [eax],al
000039D1  0000              add [eax],al
000039D3  0000              add [eax],al
000039D5  0000              add [eax],al
000039D7  0000              add [eax],al
000039D9  0000              add [eax],al
000039DB  0000              add [eax],al
000039DD  0000              add [eax],al
000039DF  0000              add [eax],al
000039E1  0000              add [eax],al
000039E3  0000              add [eax],al
000039E5  0000              add [eax],al
000039E7  0000              add [eax],al
000039E9  0000              add [eax],al
000039EB  0000              add [eax],al
000039ED  0000              add [eax],al
000039EF  0000              add [eax],al
000039F1  0000              add [eax],al
000039F3  0000              add [eax],al
000039F5  0000              add [eax],al
000039F7  0000              add [eax],al
000039F9  0000              add [eax],al
000039FB  0000              add [eax],al
000039FD  0000              add [eax],al
000039FF  0000              add [eax],al
00003A01  0000              add [eax],al
00003A03  0000              add [eax],al
00003A05  0000              add [eax],al
00003A07  0000              add [eax],al
00003A09  0000              add [eax],al
00003A0B  0000              add [eax],al
00003A0D  0000              add [eax],al
00003A0F  0000              add [eax],al
00003A11  0000              add [eax],al
00003A13  0000              add [eax],al
00003A15  0000              add [eax],al
00003A17  0000              add [eax],al
00003A19  0000              add [eax],al
00003A1B  0000              add [eax],al
00003A1D  0000              add [eax],al
00003A1F  0000              add [eax],al
00003A21  0000              add [eax],al
00003A23  0000              add [eax],al
00003A25  0000              add [eax],al
00003A27  0000              add [eax],al
00003A29  0000              add [eax],al
00003A2B  0000              add [eax],al
00003A2D  0000              add [eax],al
00003A2F  0000              add [eax],al
00003A31  0000              add [eax],al
00003A33  0000              add [eax],al
00003A35  0000              add [eax],al
00003A37  0000              add [eax],al
00003A39  0000              add [eax],al
00003A3B  0000              add [eax],al
00003A3D  0000              add [eax],al
00003A3F  0000              add [eax],al
00003A41  0000              add [eax],al
00003A43  0000              add [eax],al
00003A45  0000              add [eax],al
00003A47  0000              add [eax],al
00003A49  0000              add [eax],al
00003A4B  0000              add [eax],al
00003A4D  0000              add [eax],al
00003A4F  0000              add [eax],al
00003A51  0000              add [eax],al
00003A53  0000              add [eax],al
00003A55  0000              add [eax],al
00003A57  0000              add [eax],al
00003A59  0000              add [eax],al
00003A5B  0000              add [eax],al
00003A5D  0000              add [eax],al
00003A5F  0000              add [eax],al
00003A61  0000              add [eax],al
00003A63  0000              add [eax],al
00003A65  0000              add [eax],al
00003A67  0000              add [eax],al
00003A69  0000              add [eax],al
00003A6B  0000              add [eax],al
00003A6D  0000              add [eax],al
00003A6F  0000              add [eax],al
00003A71  0000              add [eax],al
00003A73  0000              add [eax],al
00003A75  0000              add [eax],al
00003A77  0000              add [eax],al
00003A79  0000              add [eax],al
00003A7B  0000              add [eax],al
00003A7D  0000              add [eax],al
00003A7F  0000              add [eax],al
00003A81  0000              add [eax],al
00003A83  0000              add [eax],al
00003A85  0000              add [eax],al
00003A87  0000              add [eax],al
00003A89  0000              add [eax],al
00003A8B  0000              add [eax],al
00003A8D  0000              add [eax],al
00003A8F  0000              add [eax],al
00003A91  0000              add [eax],al
00003A93  0000              add [eax],al
00003A95  0000              add [eax],al
00003A97  0000              add [eax],al
00003A99  0000              add [eax],al
00003A9B  0000              add [eax],al
00003A9D  0000              add [eax],al
00003A9F  0000              add [eax],al
00003AA1  0000              add [eax],al
00003AA3  0000              add [eax],al
00003AA5  0000              add [eax],al
00003AA7  0000              add [eax],al
00003AA9  0000              add [eax],al
00003AAB  0000              add [eax],al
00003AAD  0000              add [eax],al
00003AAF  0000              add [eax],al
00003AB1  0000              add [eax],al
00003AB3  0000              add [eax],al
00003AB5  0000              add [eax],al
00003AB7  0000              add [eax],al
00003AB9  0000              add [eax],al
00003ABB  0000              add [eax],al
00003ABD  0000              add [eax],al
00003ABF  0000              add [eax],al
00003AC1  0000              add [eax],al
00003AC3  0000              add [eax],al
00003AC5  0000              add [eax],al
00003AC7  0000              add [eax],al
00003AC9  0000              add [eax],al
00003ACB  0000              add [eax],al
00003ACD  0000              add [eax],al
00003ACF  0000              add [eax],al
00003AD1  0000              add [eax],al
00003AD3  0000              add [eax],al
00003AD5  0000              add [eax],al
00003AD7  0000              add [eax],al
00003AD9  0000              add [eax],al
00003ADB  0000              add [eax],al
00003ADD  0000              add [eax],al
00003ADF  0000              add [eax],al
00003AE1  0000              add [eax],al
00003AE3  0000              add [eax],al
00003AE5  0000              add [eax],al
00003AE7  0000              add [eax],al
00003AE9  0000              add [eax],al
00003AEB  0000              add [eax],al
00003AED  0000              add [eax],al
00003AEF  0000              add [eax],al
00003AF1  0000              add [eax],al
00003AF3  0000              add [eax],al
00003AF5  0000              add [eax],al
00003AF7  0000              add [eax],al
00003AF9  0000              add [eax],al
00003AFB  0000              add [eax],al
00003AFD  0000              add [eax],al
00003AFF  0000              add [eax],al
00003B01  0000              add [eax],al
00003B03  0000              add [eax],al
00003B05  0000              add [eax],al
00003B07  0000              add [eax],al
00003B09  0000              add [eax],al
00003B0B  0000              add [eax],al
00003B0D  0000              add [eax],al
00003B0F  0000              add [eax],al
00003B11  0000              add [eax],al
00003B13  0000              add [eax],al
00003B15  0000              add [eax],al
00003B17  0000              add [eax],al
00003B19  0000              add [eax],al
00003B1B  0000              add [eax],al
00003B1D  0000              add [eax],al
00003B1F  0000              add [eax],al
00003B21  0000              add [eax],al
00003B23  0000              add [eax],al
00003B25  0000              add [eax],al
00003B27  0000              add [eax],al
00003B29  0000              add [eax],al
00003B2B  0000              add [eax],al
00003B2D  0000              add [eax],al
00003B2F  0000              add [eax],al
00003B31  0000              add [eax],al
00003B33  0000              add [eax],al
00003B35  0000              add [eax],al
00003B37  0000              add [eax],al
00003B39  0000              add [eax],al
00003B3B  0000              add [eax],al
00003B3D  0000              add [eax],al
00003B3F  0000              add [eax],al
00003B41  0000              add [eax],al
00003B43  0000              add [eax],al
00003B45  0000              add [eax],al
00003B47  0000              add [eax],al
00003B49  0000              add [eax],al
00003B4B  0000              add [eax],al
00003B4D  0000              add [eax],al
00003B4F  0000              add [eax],al
00003B51  0000              add [eax],al
00003B53  0000              add [eax],al
00003B55  0000              add [eax],al
00003B57  0000              add [eax],al
00003B59  0000              add [eax],al
00003B5B  0000              add [eax],al
00003B5D  0000              add [eax],al
00003B5F  0000              add [eax],al
00003B61  0000              add [eax],al
00003B63  0000              add [eax],al
00003B65  0000              add [eax],al
00003B67  0000              add [eax],al
00003B69  0000              add [eax],al
00003B6B  0000              add [eax],al
00003B6D  0000              add [eax],al
00003B6F  0000              add [eax],al
00003B71  0000              add [eax],al
00003B73  0000              add [eax],al
00003B75  0000              add [eax],al
00003B77  0000              add [eax],al
00003B79  0000              add [eax],al
00003B7B  0000              add [eax],al
00003B7D  0000              add [eax],al
00003B7F  0000              add [eax],al
00003B81  0000              add [eax],al
00003B83  0000              add [eax],al
00003B85  0000              add [eax],al
00003B87  0000              add [eax],al
00003B89  0000              add [eax],al
00003B8B  0000              add [eax],al
00003B8D  0000              add [eax],al
00003B8F  0000              add [eax],al
00003B91  0000              add [eax],al
00003B93  0000              add [eax],al
00003B95  0000              add [eax],al
00003B97  0000              add [eax],al
00003B99  0000              add [eax],al
00003B9B  0000              add [eax],al
00003B9D  0000              add [eax],al
00003B9F  0000              add [eax],al
00003BA1  0000              add [eax],al
00003BA3  0000              add [eax],al
00003BA5  0000              add [eax],al
00003BA7  0000              add [eax],al
00003BA9  0000              add [eax],al
00003BAB  0000              add [eax],al
00003BAD  0000              add [eax],al
00003BAF  0000              add [eax],al
00003BB1  0000              add [eax],al
00003BB3  0000              add [eax],al
00003BB5  0000              add [eax],al
00003BB7  0000              add [eax],al
00003BB9  0000              add [eax],al
00003BBB  0000              add [eax],al
00003BBD  0000              add [eax],al
00003BBF  0000              add [eax],al
00003BC1  0000              add [eax],al
00003BC3  0000              add [eax],al
00003BC5  0000              add [eax],al
00003BC7  0000              add [eax],al
00003BC9  0000              add [eax],al
00003BCB  0000              add [eax],al
00003BCD  0000              add [eax],al
00003BCF  0000              add [eax],al
00003BD1  0000              add [eax],al
00003BD3  0000              add [eax],al
00003BD5  0000              add [eax],al
00003BD7  0000              add [eax],al
00003BD9  0000              add [eax],al
00003BDB  0000              add [eax],al
00003BDD  0000              add [eax],al
00003BDF  0000              add [eax],al
00003BE1  0000              add [eax],al
00003BE3  0000              add [eax],al
00003BE5  0000              add [eax],al
00003BE7  0000              add [eax],al
00003BE9  0000              add [eax],al
00003BEB  0000              add [eax],al
00003BED  0000              add [eax],al
00003BEF  0000              add [eax],al
00003BF1  0000              add [eax],al
00003BF3  0000              add [eax],al
00003BF5  0000              add [eax],al
00003BF7  0000              add [eax],al
00003BF9  0000              add [eax],al
00003BFB  0000              add [eax],al
00003BFD  0000              add [eax],al
00003BFF  0000              add [eax],al
00003C01  0000              add [eax],al
00003C03  0000              add [eax],al
00003C05  0000              add [eax],al
00003C07  0000              add [eax],al
00003C09  0000              add [eax],al
00003C0B  0000              add [eax],al
00003C0D  0000              add [eax],al
00003C0F  0000              add [eax],al
00003C11  0000              add [eax],al
00003C13  0000              add [eax],al
00003C15  0000              add [eax],al
00003C17  0000              add [eax],al
00003C19  0000              add [eax],al
00003C1B  0000              add [eax],al
00003C1D  0000              add [eax],al
00003C1F  0000              add [eax],al
00003C21  0000              add [eax],al
00003C23  0000              add [eax],al
00003C25  0000              add [eax],al
00003C27  0000              add [eax],al
00003C29  0000              add [eax],al
00003C2B  0000              add [eax],al
00003C2D  0000              add [eax],al
00003C2F  0000              add [eax],al
00003C31  0000              add [eax],al
00003C33  0000              add [eax],al
00003C35  0000              add [eax],al
00003C37  0000              add [eax],al
00003C39  0000              add [eax],al
00003C3B  0000              add [eax],al
00003C3D  0000              add [eax],al
00003C3F  0000              add [eax],al
00003C41  0000              add [eax],al
00003C43  0000              add [eax],al
00003C45  0000              add [eax],al
00003C47  0000              add [eax],al
00003C49  0000              add [eax],al
00003C4B  0000              add [eax],al
00003C4D  0000              add [eax],al
00003C4F  0000              add [eax],al
00003C51  0000              add [eax],al
00003C53  0000              add [eax],al
00003C55  0000              add [eax],al
00003C57  0000              add [eax],al
00003C59  0000              add [eax],al
00003C5B  0000              add [eax],al
00003C5D  0000              add [eax],al
00003C5F  0000              add [eax],al
00003C61  0000              add [eax],al
00003C63  0000              add [eax],al
00003C65  0000              add [eax],al
00003C67  0000              add [eax],al
00003C69  0000              add [eax],al
00003C6B  0000              add [eax],al
00003C6D  0000              add [eax],al
00003C6F  0000              add [eax],al
00003C71  0000              add [eax],al
00003C73  0000              add [eax],al
00003C75  0000              add [eax],al
00003C77  0000              add [eax],al
00003C79  0000              add [eax],al
00003C7B  0000              add [eax],al
00003C7D  0000              add [eax],al
00003C7F  0000              add [eax],al
00003C81  0000              add [eax],al
00003C83  0000              add [eax],al
00003C85  0000              add [eax],al
00003C87  0000              add [eax],al
00003C89  0000              add [eax],al
00003C8B  0000              add [eax],al
00003C8D  0000              add [eax],al
00003C8F  0000              add [eax],al
00003C91  0000              add [eax],al
00003C93  0000              add [eax],al
00003C95  0000              add [eax],al
00003C97  0000              add [eax],al
00003C99  0000              add [eax],al
00003C9B  0000              add [eax],al
00003C9D  0000              add [eax],al
00003C9F  0000              add [eax],al
00003CA1  0000              add [eax],al
00003CA3  0000              add [eax],al
00003CA5  0000              add [eax],al
00003CA7  0000              add [eax],al
00003CA9  0000              add [eax],al
00003CAB  0000              add [eax],al
00003CAD  0000              add [eax],al
00003CAF  0000              add [eax],al
00003CB1  0000              add [eax],al
00003CB3  0000              add [eax],al
00003CB5  0000              add [eax],al
00003CB7  0000              add [eax],al
00003CB9  0000              add [eax],al
00003CBB  0000              add [eax],al
00003CBD  0000              add [eax],al
00003CBF  0000              add [eax],al
00003CC1  0000              add [eax],al
00003CC3  0000              add [eax],al
00003CC5  0000              add [eax],al
00003CC7  0000              add [eax],al
00003CC9  0000              add [eax],al
00003CCB  0000              add [eax],al
00003CCD  0000              add [eax],al
00003CCF  0000              add [eax],al
00003CD1  0000              add [eax],al
00003CD3  0000              add [eax],al
00003CD5  0000              add [eax],al
00003CD7  0000              add [eax],al
00003CD9  0000              add [eax],al
00003CDB  0000              add [eax],al
00003CDD  0000              add [eax],al
00003CDF  0000              add [eax],al
00003CE1  0000              add [eax],al
00003CE3  0000              add [eax],al
00003CE5  0000              add [eax],al
00003CE7  0000              add [eax],al
00003CE9  0000              add [eax],al
00003CEB  0000              add [eax],al
00003CED  0000              add [eax],al
00003CEF  0000              add [eax],al
00003CF1  0000              add [eax],al
00003CF3  0000              add [eax],al
00003CF5  0000              add [eax],al
00003CF7  0000              add [eax],al
00003CF9  0000              add [eax],al
00003CFB  0000              add [eax],al
00003CFD  0000              add [eax],al
00003CFF  0000              add [eax],al
00003D01  0000              add [eax],al
00003D03  0000              add [eax],al
00003D05  0000              add [eax],al
00003D07  0000              add [eax],al
00003D09  0000              add [eax],al
00003D0B  0000              add [eax],al
00003D0D  0000              add [eax],al
00003D0F  0000              add [eax],al
00003D11  0000              add [eax],al
00003D13  0000              add [eax],al
00003D15  0000              add [eax],al
00003D17  0000              add [eax],al
00003D19  0000              add [eax],al
00003D1B  0000              add [eax],al
00003D1D  0000              add [eax],al
00003D1F  0000              add [eax],al
00003D21  0000              add [eax],al
00003D23  0000              add [eax],al
00003D25  0000              add [eax],al
00003D27  0000              add [eax],al
00003D29  0000              add [eax],al
00003D2B  0000              add [eax],al
00003D2D  0000              add [eax],al
00003D2F  0000              add [eax],al
00003D31  0000              add [eax],al
00003D33  0000              add [eax],al
00003D35  0000              add [eax],al
00003D37  0000              add [eax],al
00003D39  0000              add [eax],al
00003D3B  0000              add [eax],al
00003D3D  0000              add [eax],al
00003D3F  0000              add [eax],al
00003D41  0000              add [eax],al
00003D43  0000              add [eax],al
00003D45  0000              add [eax],al
00003D47  0000              add [eax],al
00003D49  0000              add [eax],al
00003D4B  0000              add [eax],al
00003D4D  0000              add [eax],al
00003D4F  0000              add [eax],al
00003D51  0000              add [eax],al
00003D53  0000              add [eax],al
00003D55  0000              add [eax],al
00003D57  0000              add [eax],al
00003D59  0000              add [eax],al
00003D5B  0000              add [eax],al
00003D5D  0000              add [eax],al
00003D5F  0000              add [eax],al
00003D61  0000              add [eax],al
00003D63  0000              add [eax],al
00003D65  0000              add [eax],al
00003D67  0000              add [eax],al
00003D69  0000              add [eax],al
00003D6B  0000              add [eax],al
00003D6D  0000              add [eax],al
00003D6F  0000              add [eax],al
00003D71  0000              add [eax],al
00003D73  0000              add [eax],al
00003D75  0000              add [eax],al
00003D77  0000              add [eax],al
00003D79  0000              add [eax],al
00003D7B  0000              add [eax],al
00003D7D  0000              add [eax],al
00003D7F  0000              add [eax],al
00003D81  0000              add [eax],al
00003D83  0000              add [eax],al
00003D85  0000              add [eax],al
00003D87  0000              add [eax],al
00003D89  0000              add [eax],al
00003D8B  0000              add [eax],al
00003D8D  0000              add [eax],al
00003D8F  0000              add [eax],al
00003D91  0000              add [eax],al
00003D93  0000              add [eax],al
00003D95  0000              add [eax],al
00003D97  0000              add [eax],al
00003D99  0000              add [eax],al
00003D9B  0000              add [eax],al
00003D9D  0000              add [eax],al
00003D9F  0000              add [eax],al
00003DA1  0000              add [eax],al
00003DA3  0000              add [eax],al
00003DA5  0000              add [eax],al
00003DA7  0000              add [eax],al
00003DA9  0000              add [eax],al
00003DAB  0000              add [eax],al
00003DAD  0000              add [eax],al
00003DAF  0000              add [eax],al
00003DB1  0000              add [eax],al
00003DB3  0000              add [eax],al
00003DB5  0000              add [eax],al
00003DB7  0000              add [eax],al
00003DB9  0000              add [eax],al
00003DBB  0000              add [eax],al
00003DBD  0000              add [eax],al
00003DBF  0000              add [eax],al
00003DC1  0000              add [eax],al
00003DC3  0000              add [eax],al
00003DC5  0000              add [eax],al
00003DC7  0000              add [eax],al
00003DC9  0000              add [eax],al
00003DCB  0000              add [eax],al
00003DCD  0000              add [eax],al
00003DCF  0000              add [eax],al
00003DD1  0000              add [eax],al
00003DD3  0000              add [eax],al
00003DD5  0000              add [eax],al
00003DD7  0000              add [eax],al
00003DD9  0000              add [eax],al
00003DDB  0000              add [eax],al
00003DDD  0000              add [eax],al
00003DDF  0000              add [eax],al
00003DE1  0000              add [eax],al
00003DE3  0000              add [eax],al
00003DE5  0000              add [eax],al
00003DE7  0000              add [eax],al
00003DE9  0000              add [eax],al
00003DEB  0000              add [eax],al
00003DED  0000              add [eax],al
00003DEF  0000              add [eax],al
00003DF1  0000              add [eax],al
00003DF3  0000              add [eax],al
00003DF5  0000              add [eax],al
00003DF7  0000              add [eax],al
00003DF9  0000              add [eax],al
00003DFB  0000              add [eax],al
00003DFD  0000              add [eax],al
00003DFF  0000              add [eax],al
00003E01  0000              add [eax],al
00003E03  0000              add [eax],al
00003E05  0000              add [eax],al
00003E07  0000              add [eax],al
00003E09  0000              add [eax],al
00003E0B  0000              add [eax],al
00003E0D  0000              add [eax],al
00003E0F  0000              add [eax],al
00003E11  0000              add [eax],al
00003E13  0000              add [eax],al
00003E15  0000              add [eax],al
00003E17  0000              add [eax],al
00003E19  0000              add [eax],al
00003E1B  0000              add [eax],al
00003E1D  0000              add [eax],al
00003E1F  0000              add [eax],al
00003E21  0000              add [eax],al
00003E23  0000              add [eax],al
00003E25  0000              add [eax],al
00003E27  0000              add [eax],al
00003E29  0000              add [eax],al
00003E2B  0000              add [eax],al
00003E2D  0000              add [eax],al
00003E2F  0000              add [eax],al
00003E31  0000              add [eax],al
00003E33  0000              add [eax],al
00003E35  0000              add [eax],al
00003E37  0000              add [eax],al
00003E39  0000              add [eax],al
00003E3B  0000              add [eax],al
00003E3D  0000              add [eax],al
00003E3F  0000              add [eax],al
00003E41  0000              add [eax],al
00003E43  0000              add [eax],al
00003E45  0000              add [eax],al
00003E47  0000              add [eax],al
00003E49  0000              add [eax],al
00003E4B  0000              add [eax],al
00003E4D  0000              add [eax],al
00003E4F  0000              add [eax],al
00003E51  0000              add [eax],al
00003E53  0000              add [eax],al
00003E55  0000              add [eax],al
00003E57  0000              add [eax],al
00003E59  0000              add [eax],al
00003E5B  0000              add [eax],al
00003E5D  0000              add [eax],al
00003E5F  0000              add [eax],al
00003E61  0000              add [eax],al
00003E63  0000              add [eax],al
00003E65  0000              add [eax],al
00003E67  0000              add [eax],al
00003E69  0000              add [eax],al
00003E6B  0000              add [eax],al
00003E6D  0000              add [eax],al
00003E6F  0000              add [eax],al
00003E71  0000              add [eax],al
00003E73  0000              add [eax],al
00003E75  0000              add [eax],al
00003E77  0000              add [eax],al
00003E79  0000              add [eax],al
00003E7B  0000              add [eax],al
00003E7D  0000              add [eax],al
00003E7F  0000              add [eax],al
00003E81  0000              add [eax],al
00003E83  0000              add [eax],al
00003E85  0000              add [eax],al
00003E87  0000              add [eax],al
00003E89  0000              add [eax],al
00003E8B  0000              add [eax],al
00003E8D  0000              add [eax],al
00003E8F  0000              add [eax],al
00003E91  0000              add [eax],al
00003E93  0000              add [eax],al
00003E95  0000              add [eax],al
00003E97  0000              add [eax],al
00003E99  0000              add [eax],al
00003E9B  0000              add [eax],al
00003E9D  0000              add [eax],al
00003E9F  0000              add [eax],al
00003EA1  0000              add [eax],al
00003EA3  0000              add [eax],al
00003EA5  0000              add [eax],al
00003EA7  0000              add [eax],al
00003EA9  0000              add [eax],al
00003EAB  0000              add [eax],al
00003EAD  0000              add [eax],al
00003EAF  0000              add [eax],al
00003EB1  0000              add [eax],al
00003EB3  0000              add [eax],al
00003EB5  0000              add [eax],al
00003EB7  0000              add [eax],al
00003EB9  0000              add [eax],al
00003EBB  0000              add [eax],al
00003EBD  0000              add [eax],al
00003EBF  0000              add [eax],al
00003EC1  0000              add [eax],al
00003EC3  0000              add [eax],al
00003EC5  0000              add [eax],al
00003EC7  0000              add [eax],al
00003EC9  0000              add [eax],al
00003ECB  0000              add [eax],al
00003ECD  0000              add [eax],al
00003ECF  0000              add [eax],al
00003ED1  0000              add [eax],al
00003ED3  0000              add [eax],al
00003ED5  0000              add [eax],al
00003ED7  0000              add [eax],al
00003ED9  0000              add [eax],al
00003EDB  0000              add [eax],al
00003EDD  0000              add [eax],al
00003EDF  0000              add [eax],al
00003EE1  0000              add [eax],al
00003EE3  0000              add [eax],al
00003EE5  0000              add [eax],al
00003EE7  0000              add [eax],al
00003EE9  0000              add [eax],al
00003EEB  0000              add [eax],al
00003EED  0000              add [eax],al
00003EEF  0000              add [eax],al
00003EF1  0000              add [eax],al
00003EF3  005088            add [eax-0x78],dl
00003EF6  0408              add al,0x8
00003EF8  798A              jns 0x3e84
00003EFA  0408              add al,0x8
00003EFC  308804080000      xor [eax+0x804],cl
00003F02  0000              add [eax],al
00003F04  0100              add [eax],eax
00003F06  0000              add [eax],al
00003F08  0100              add [eax],eax
00003F0A  0000              add [eax],al
00003F0C  0100              add [eax],eax
00003F0E  0000              add [eax],al
00003F10  2201              and al,[ecx]
00003F12  0000              add [eax],al
00003F14  0100              add [eax],eax
00003F16  0000              add [eax],al
00003F18  3F                aas
00003F19  0100              add [eax],eax
00003F1B  000C00            add [eax+eax],cl
00003F1E  0000              add [eax],al
00003F20  308604080D00      xor [esi+0xd0804],al
00003F26  0000              add [eax],al
00003F28  34A0              xor al,0xa0
00003F2A  0408              add al,0x8
00003F2C  1900              sbb [eax],eax
00003F2E  0000              add [eax],al
00003F30  F4                hlt
00003F31  CE                into
00003F32  0408              add al,0x8
00003F34  1B00              sbb eax,[eax]
00003F36  0000              add [eax],al
00003F38  0800              or [eax],al
00003F3A  0000              add [eax],al
00003F3C  1A00              sbb al,[eax]
00003F3E  0000              add [eax],al
00003F40  FC                cld
00003F41  CE                into
00003F42  0408              add al,0x8
00003F44  1C00              sbb al,0x0
00003F46  0000              add [eax],al
00003F48  0400              add al,0x0
00003F4A  0000              add [eax],al
00003F4C  F5                cmc
00003F4D  FE                db 0xfe
00003F4E  FF6FAC            jmp far [edi-0x54]
00003F51  81040805000000    add dword [eax+ecx],0x5
00003F58  388304080600      cmp [ebx+0x60804],al
00003F5E  0000              add [eax],al
00003F60  D88104080A00      fadd dword [ecx+0xa0804]
00003F66  0000              add [eax],al
00003F68  C10100            rol dword [ecx],byte 0x0
00003F6B  000B              add [ebx],cl
00003F6D  0000              add [eax],al
00003F6F  0010              add [eax],dl
00003F71  0000              add [eax],al
00003F73  001500000000      add [dword 0x0],dl
00003F79  0000              add [eax],al
00003F7B  0003              add [ebx],al
00003F7D  0000              add [eax],al
00003F7F  0000              add [eax],al
00003F81  D00408            rol byte [eax+ecx],1
00003F84  0200              add al,[eax]
00003F86  0000              add [eax],al
00003F88  800000            add byte [eax],0x0
00003F8B  001400            add [eax+eax],dl
00003F8E  0000              add [eax],al
00003F90  1100              adc [eax],eax
00003F92  0000              add [eax],al
00003F94  17                pop ss
00003F95  0000              add [eax],al
00003F97  00B085040811      add [eax+0x11080485],dh
00003F9D  0000              add [eax],al
00003F9F  00A885040812      add [eax+0x12080485],ch
00003FA5  0000              add [eax],al
00003FA7  0008              add [eax],cl
00003FA9  0000              add [eax],al
00003FAB  0013              add [ebx],dl
00003FAD  0000              add [eax],al
00003FAF  0008              add [eax],cl
00003FB1  0000              add [eax],al
00003FB3  00FE              add dh,bh
00003FB5  FF                db 0xff
00003FB6  FF6F28            jmp far [edi+0x28]
00003FB9  850408            test [eax+ecx],eax
00003FBC  FF                db 0xff
00003FBD  FF                db 0xff
00003FBE  FF6F03            jmp far [edi+0x3]
00003FC1  0000              add [eax],al
00003FC3  00F0              add al,dh
00003FC5  FF                db 0xff
00003FC6  FF6FFA            jmp far [edi-0x6]
00003FC9  840408            test [eax+ecx],al
00003FCC  0000              add [eax],al
00003FCE  0000              add [eax],al
00003FD0  0000              add [eax],al
00003FD2  0000              add [eax],al
00003FD4  0000              add [eax],al
00003FD6  0000              add [eax],al
00003FD8  0000              add [eax],al
00003FDA  0000              add [eax],al
00003FDC  0000              add [eax],al
00003FDE  0000              add [eax],al
00003FE0  0000              add [eax],al
00003FE2  0000              add [eax],al
00003FE4  0000              add [eax],al
00003FE6  0000              add [eax],al
00003FE8  0000              add [eax],al
00003FEA  0000              add [eax],al
00003FEC  0000              add [eax],al
00003FEE  0000              add [eax],al
00003FF0  0000              add [eax],al
00003FF2  0000              add [eax],al
00003FF4  0000              add [eax],al
00003FF6  0000              add [eax],al
00003FF8  0000              add [eax],al
00003FFA  0000              add [eax],al
00003FFC  0000              add [eax],al
00003FFE  0000              add [eax],al
00004000  04CF              add al,0xcf
00004002  0408              add al,0x8
00004004  0000              add [eax],al
00004006  0000              add [eax],al
00004008  0000              add [eax],al
0000400A  0000              add [eax],al
0000400C  7686              jna 0x3f94
0000400E  0408              add al,0x8
00004010  868604089686      xchg al,[esi-0x7969f7fc]
00004016  0408              add al,0x8
00004018  A6                cmpsb
00004019  860408            xchg al,[eax+ecx]
0000401C  B686              mov dh,0x86
0000401E  0408              add al,0x8
00004020  C6860408D68604    mov byte [esi-0x7929f7fc],0x4
00004027  08E6              or dh,ah
00004029  860408            xchg al,[eax+ecx]
0000402C  F6860408068704    test byte [esi-0x78f9f7fc],0x4
00004033  0816              or [esi],dl
00004035  870408            xchg eax,[eax+ecx]
00004038  26870408          xchg eax,[es:eax+ecx]
0000403C  36870408          xchg eax,[ss:eax+ecx]
00004040  46                inc esi
00004041  870408            xchg eax,[eax+ecx]
00004044  56                push esi
00004045  870408            xchg eax,[eax+ecx]
00004048  66870408          xchg ax,[eax+ecx]
0000404C  0000              add [eax],al
0000404E  0000              add [eax],al
00004050  0000              add [eax],al
00004052  0000              add [eax],al
00004054  47                inc edi
00004055  43                inc ebx
00004056  43                inc ebx
00004057  3A20              cmp ah,[eax]
00004059  285562            sub [ebp+0x62],dl
0000405C  756E              jnz 0x40cc
0000405E  7475              jz 0x40d5
00004060  20342E            and [esi+ebp],dh
00004063  382E              cmp [esi],ch
00004065  352D347562        xor eax,0x6275342d
0000406A  756E              jnz 0x40da
0000406C  7475              jz 0x40e3
0000406E  3229              xor ch,[ecx]
00004070  20342E            and [esi+ebp],dh
00004073  382E              cmp [esi],ch
00004075  3500000000        xor eax,0x0
0000407A  0000              add [eax],al
0000407C  0000              add [eax],al
0000407E  0000              add [eax],al
00004080  0000              add [eax],al
00004082  0000              add [eax],al
00004084  0000              add [eax],al
00004086  0000              add [eax],al
00004088  0000              add [eax],al
0000408A  0000              add [eax],al
0000408C  54                push esp
0000408D  81040800000000    add dword [eax+ecx],0x0
00004094  0300              add eax,[eax]
00004096  0100              add [eax],eax
00004098  0000              add [eax],al
0000409A  0000              add [eax],al
0000409C  6881040800        push dword 0x80481
000040A1  0000              add [eax],al
000040A3  0003              add [ebx],al
000040A5  0002              add [edx],al
000040A7  0000              add [eax],al
000040A9  0000              add [eax],al
000040AB  008881040800      add [eax+0x80481],cl
000040B1  0000              add [eax],al
000040B3  0003              add [ebx],al
000040B5  0003              add [ebx],al
000040B7  0000              add [eax],al
000040B9  0000              add [eax],al
000040BB  00AC8104080000    add [ecx+eax*4+0x804],ch
000040C2  0000              add [eax],al
000040C4  0300              add eax,[eax]
000040C6  0400              add al,0x0
000040C8  0000              add [eax],al
000040CA  0000              add [eax],al
000040CC  D88104080000      fadd dword [ecx+0x804]
000040D2  0000              add [eax],al
000040D4  0300              add eax,[eax]
000040D6  0500000000        add eax,0x0
000040DB  0038              add [eax],bh
000040DD  83040800          add dword [eax+ecx],byte +0x0
000040E1  0000              add [eax],al
000040E3  0003              add [ebx],al
000040E5  0006              add [esi],al
000040E7  0000              add [eax],al
000040E9  0000              add [eax],al
000040EB  00FA              add dl,bh
000040ED  840408            test [eax+ecx],al
000040F0  0000              add [eax],al
000040F2  0000              add [eax],al
000040F4  0300              add eax,[eax]
000040F6  07                pop es
000040F7  0000              add [eax],al
000040F9  0000              add [eax],al
000040FB  0028              add [eax],ch
000040FD  850408            test [eax+ecx],eax
00004100  0000              add [eax],al
00004102  0000              add [eax],al
00004104  0300              add eax,[eax]
00004106  0800              or [eax],al
00004108  0000              add [eax],al
0000410A  0000              add [eax],al
0000410C  A885              test al,0x85
0000410E  0408              add al,0x8
00004110  0000              add [eax],al
00004112  0000              add [eax],al
00004114  0300              add eax,[eax]
00004116  0900              or [eax],eax
00004118  0000              add [eax],al
0000411A  0000              add [eax],al
0000411C  B085              mov al,0x85
0000411E  0408              add al,0x8
00004120  0000              add [eax],al
00004122  0000              add [eax],al
00004124  0300              add eax,[eax]
00004126  0A00              or al,[eax]
00004128  0000              add [eax],al
0000412A  0000              add [eax],al
0000412C  308604080000      xor [esi+0x804],al
00004132  0000              add [eax],al
00004134  0300              add eax,[eax]
00004136  0B00              or eax,[eax]
00004138  0000              add [eax],al
0000413A  0000              add [eax],al
0000413C  60                pusha
0000413D  860408            xchg al,[eax+ecx]
00004140  0000              add [eax],al
00004142  0000              add [eax],al
00004144  0300              add eax,[eax]
00004146  0C00              or al,0x0
00004148  0000              add [eax],al
0000414A  0000              add [eax],al
0000414C  7087              jo 0x40d5
0000414E  0408              add al,0x8
00004150  0000              add [eax],al
00004152  0000              add [eax],al
00004154  0300              add eax,[eax]
00004156  0D00000000        or eax,0x0
0000415B  008087040800      add [eax+0x80487],al
00004161  0000              add [eax],al
00004163  0003              add [ebx],al
00004165  000E              add [esi],cl
00004167  0000              add [eax],al
00004169  0000              add [eax],al
0000416B  0034A0            add [eax],dh
0000416E  0408              add al,0x8
00004170  0000              add [eax],al
00004172  0000              add [eax],al
00004174  0300              add eax,[eax]
00004176  0F0000            sldt [eax]
00004179  0000              add [eax],al
0000417B  0048A0            add [eax-0x60],cl
0000417E  0408              add al,0x8
00004180  0000              add [eax],al
00004182  0000              add [eax],al
00004184  0300              add eax,[eax]
00004186  1000              adc [eax],al
00004188  0000              add [eax],al
0000418A  0000              add [eax],al
0000418C  8CA004080000      mov [eax+0x804],fs
00004192  0000              add [eax],al
00004194  0300              add eax,[eax]
00004196  1100              adc [eax],eax
00004198  0000              add [eax],al
0000419A  0000              add [eax],al
0000419C  C8A30408          enter 0x4a3,0x8
000041A0  0000              add [eax],al
000041A2  0000              add [eax],al
000041A4  0300              add eax,[eax]
000041A6  1200              adc al,[eax]
000041A8  0000              add [eax],al
000041AA  0000              add [eax],al
000041AC  80B10408000000    xor byte [ecx+0x804],0x0
000041B3  0003              add [ebx],al
000041B5  0013              add [ebx],dl
000041B7  0000              add [eax],al
000041B9  0000              add [eax],al
000041BB  00F4              add ah,dh
000041BD  CE                into
000041BE  0408              add al,0x8
000041C0  0000              add [eax],al
000041C2  0000              add [eax],al
000041C4  0300              add eax,[eax]
000041C6  1400              adc al,0x0
000041C8  0000              add [eax],al
000041CA  0000              add [eax],al
000041CC  FC                cld
000041CD  CE                into
000041CE  0408              add al,0x8
000041D0  0000              add [eax],al
000041D2  0000              add [eax],al
000041D4  0300              add eax,[eax]
000041D6  1500000000        adc eax,0x0
000041DB  0000              add [eax],al
000041DD  CF                iret
000041DE  0408              add al,0x8
000041E0  0000              add [eax],al
000041E2  0000              add [eax],al
000041E4  0300              add eax,[eax]
000041E6  16                push ss
000041E7  0000              add [eax],al
000041E9  0000              add [eax],al
000041EB  0004CF            add [edi+ecx*8],al
000041EE  0408              add al,0x8
000041F0  0000              add [eax],al
000041F2  0000              add [eax],al
000041F4  0300              add eax,[eax]
000041F6  17                pop ss
000041F7  0000              add [eax],al
000041F9  0000              add [eax],al
000041FB  00FC              add ah,bh
000041FD  CF                iret
000041FE  0408              add al,0x8
00004200  0000              add [eax],al
00004202  0000              add [eax],al
00004204  0300              add eax,[eax]
00004206  1800              sbb [eax],al
00004208  0000              add [eax],al
0000420A  0000              add [eax],al
0000420C  00D0              add al,dl
0000420E  0408              add al,0x8
00004210  0000              add [eax],al
00004212  0000              add [eax],al
00004214  0300              add eax,[eax]
00004216  1900              sbb [eax],eax
00004218  0000              add [eax],al
0000421A  0000              add [eax],al
0000421C  4C                dec esp
0000421D  D00408            rol byte [eax+ecx],1
00004220  0000              add [eax],al
00004222  0000              add [eax],al
00004224  0300              add eax,[eax]
00004226  1A00              sbb al,[eax]
00004228  0000              add [eax],al
0000422A  0000              add [eax],al
0000422C  54                push esp
0000422D  D00408            rol byte [eax+ecx],1
00004230  0000              add [eax],al
00004232  0000              add [eax],al
00004234  0300              add eax,[eax]
00004236  1B00              sbb eax,[eax]
00004238  0000              add [eax],al
0000423A  0000              add [eax],al
0000423C  0000              add [eax],al
0000423E  0000              add [eax],al
00004240  0000              add [eax],al
00004242  0000              add [eax],al
00004244  0300              add eax,[eax]
00004246  1C00              sbb al,0x0
00004248  0100              add [eax],eax
0000424A  0000              add [eax],al
0000424C  0000              add [eax],al
0000424E  0000              add [eax],al
00004250  0000              add [eax],al
00004252  0000              add [eax],al
00004254  0400              add al,0x0
00004256  F1                int1
00004257  FF0C00            dec dword [eax+eax]
0000425A  0000              add [eax],al
0000425C  00CF              add bh,cl
0000425E  0408              add al,0x8
00004260  0000              add [eax],al
00004262  0000              add [eax],al
00004264  0100              add [eax],eax
00004266  16                push ss
00004267  0019              add [ecx],bl
00004269  0000              add [eax],al
0000426B  00C0              add al,al
0000426D  870408            xchg eax,[eax+ecx]
00004270  0000              add [eax],al
00004272  0000              add [eax],al
00004274  0200              add al,[eax]
00004276  0E                push cs
00004277  001B              add [ebx],bl
00004279  0000              add [eax],al
0000427B  00F0              add al,dh
0000427D  870408            xchg eax,[eax+ecx]
00004280  0000              add [eax],al
00004282  0000              add [eax],al
00004284  0200              add al,[eax]
00004286  0E                push cs
00004287  002E              add [esi],ch
00004289  0000              add [eax],al
0000428B  0030              add [eax],dh
0000428D  880408            mov [eax+ecx],al
00004290  0000              add [eax],al
00004292  0000              add [eax],al
00004294  0200              add al,[eax]
00004296  0E                push cs
00004297  00440000          add [eax+eax+0x0],al
0000429B  0054D004          add [eax+edx*8+0x4],dl
0000429F  0801              or [ecx],al
000042A1  0000              add [eax],al
000042A3  0001              add [ecx],al
000042A5  001B              add [ebx],bl
000042A7  005300            add [ebx+0x0],dl
000042AA  0000              add [eax],al
000042AC  FC                cld
000042AD  CE                into
000042AE  0408              add al,0x8
000042B0  0000              add [eax],al
000042B2  0000              add [eax],al
000042B4  0100              add [eax],eax
000042B6  15007A0000        adc eax,0x7a00
000042BB  005088            add [eax-0x78],dl
000042BE  0408              add al,0x8
000042C0  0000              add [eax],al
000042C2  0000              add [eax],al
000042C4  0200              add al,[eax]
000042C6  0E                push cs
000042C7  0086000000F4      add [esi-0xc000000],al
000042CD  CE                into
000042CE  0408              add al,0x8
000042D0  0000              add [eax],al
000042D2  0000              add [eax],al
000042D4  0100              add [eax],eax
000042D6  1400              adc al,0x0
000042D8  A5                movsd
000042D9  0000              add [eax],al
000042DB  0000              add [eax],al
000042DD  0000              add [eax],al
000042DF  0000              add [eax],al
000042E1  0000              add [eax],al
000042E3  000400            add [eax+eax],al
000042E6  F1                int1
000042E7  FFC1              inc ecx
000042E9  0000              add [eax],al
000042EB  0050A0            add [eax-0x60],dl
000042EE  0408              add al,0x8
000042F0  0100              add [eax],eax
000042F2  0000              add [eax],al
000042F4  0100              add [eax],eax
000042F6  1000              adc [eax],al
000042F8  DC00              fadd qword [eax]
000042FA  0000              add [eax],al
000042FC  51                push ecx
000042FD  A004080100        mov al,[0x10804]
00004302  0000              add [eax],al
00004304  0100              add [eax],eax
00004306  1000              adc [eax],al
00004308  F1                int1
00004309  0000              add [eax],al
0000430B  0052A0            add [edx-0x60],dl
0000430E  0408              add al,0x8
00004310  0100              add [eax],eax
00004312  0000              add [eax],al
00004314  0100              add [eax],eax
00004316  1000              adc [eax],al
00004318  FE00              inc byte [eax]
0000431A  0000              add [eax],al
0000431C  55                push ebp
0000431D  D00408            rol byte [eax+ecx],1
00004320  0100              add [eax],eax
00004322  0000              add [eax],al
00004324  0100              add [eax],eax
00004326  1B00              sbb eax,[eax]
00004328  0D0100003A        or eax,0x3a000001
0000432D  8A0408            mov al,[eax+ecx]
00004330  3F                aas
00004331  0000              add [eax],al
00004333  0002              add [edx],al
00004335  000E              add [esi],cl
00004337  003D01000088      add [dword 0x88000001],bh
0000433D  A004080400        mov al,[0x40804]
00004342  0000              add [eax],al
00004344  0100              add [eax],eax
00004346  1000              adc [eax],al
00004348  640100            add [fs:eax],eax
0000434B  00798A            add [ecx-0x76],bh
0000434E  0408              add al,0x8
00004350  1C00              sbb al,0x0
00004352  0000              add [eax],al
00004354  0200              add al,[eax]
00004356  0E                push cs
00004357  0001              add [ecx],al
00004359  0000              add [eax],al
0000435B  0000              add [eax],al
0000435D  0000              add [eax],al
0000435F  0000              add [eax],al
00004361  0000              add [eax],al
00004363  000400            add [eax+eax],al
00004366  F1                int1
00004367  FF                db 0xff
00004368  7801              js 0x436b
0000436A  0000              add [eax],al
0000436C  7CB1              jl 0x431f
0000436E  0408              add al,0x8
00004370  0000              add [eax],al
00004372  0000              add [eax],al
00004374  0100              add [eax],eax
00004376  1200              adc al,[eax]
00004378  8601              xchg al,[ecx]
0000437A  0000              add [eax],al
0000437C  00CF              add bh,cl
0000437E  0408              add al,0x8
00004380  0000              add [eax],al
00004382  0000              add [eax],al
00004384  0100              add [eax],eax
00004386  16                push ss
00004387  0000              add [eax],al
00004389  0000              add [eax],al
0000438B  0000              add [eax],al
0000438D  0000              add [eax],al
0000438F  0000              add [eax],al
00004391  0000              add [eax],al
00004393  000400            add [eax+eax],al
00004396  F1                int1
00004397  FF920100008C      call [edx-0x73ffffff]
0000439D  A004080000        mov al,[0x804]
000043A2  0000              add [eax],al
000043A4  0000              add [eax],al
000043A6  1100              adc [eax],eax
000043A8  A5                movsd
000043A9  0100              add [eax],eax
000043AB  0000              add [eax],al
000043AD  D00408            rol byte [eax+ecx],1
000043B0  0000              add [eax],al
000043B2  0000              add [eax],al
000043B4  0100              add [eax],eax
000043B6  1900              sbb [eax],eax
000043B8  BB010000FC        mov ebx,0xfc000001
000043BD  CE                into
000043BE  0408              add al,0x8
000043C0  0000              add [eax],al
000043C2  0000              add [eax],al
000043C4  0000              add [eax],al
000043C6  1400              adc al,0x0
000043C8  CC                int3
000043C9  0100              add [eax],eax
000043CB  00F4              add ah,dh
000043CD  CE                into
000043CE  0408              add al,0x8
000043D0  0000              add [eax],al
000043D2  0000              add [eax],al
000043D4  0000              add [eax],al
000043D6  1400              adc al,0x0
000043D8  DF01              fild word [ecx]
000043DA  0000              add [eax],al
000043DC  04CF              add al,0xcf
000043DE  0408              add al,0x8
000043E0  0000              add [eax],al
000043E2  0000              add [eax],al
000043E4  0100              add [eax],eax
000043E6  17                pop ss
000043E7  00E2              add dl,ah
000043E9  0C00              or al,0x0
000043EB  004CD004          add [eax+edx*8+0x4],cl
000043EF  0800              or [eax],al
000043F1  0000              add [eax],al
000043F3  0020              add [eax],ah
000043F5  001A              add [edx],bl
000043F7  00E8              add al,ch
000043F9  0100              add [eax],eax
000043FB  004C8D04          add [ebp+ecx*4+0x4],cl
000043FF  082400            or [eax+eax],ah
00004402  0000              add [eax],al
00004404  2200              and al,[eax]
00004406  0E                push cs
00004407  000402            add [edx+eax],al
0000440A  0000              add [eax],al
0000440C  0000              add [eax],al
0000440E  0000              add [eax],al
00004410  0000              add [eax],al
00004412  0000              add [eax],al
00004414  1200              adc al,[eax]
00004416  0000              add [eax],al
00004418  2F                das
00004419  0200              add al,[eax]
0000441B  00929C04083C      add [edx+0x3c08049c],dl
00004421  0000              add [eax],al
00004423  0022              add [edx],ah
00004425  000E              add [esi],cl
00004427  00440200          add [edx+eax+0x0],al
0000442B  0007              add [edi],al
0000442D  9A040852000000    call 0x0:0x520804
00004434  2200              and al,[eax]
00004436  0E                push cs
00004437  008802000000      add [eax+0x2],cl
0000443D  0000              add [eax],al
0000443F  0000              add [eax],al
00004441  0000              add [eax],al
00004443  0012              add [edx],dl
00004445  0000              add [eax],al
00004447  00A202000066      add [edx+0x66000002],ah
0000444D  8F0408            pop dword [eax+ecx]
00004450  2800              sub [eax],al
00004452  0000              add [eax],al
00004454  2200              and al,[eax]
00004456  0E                push cs
00004457  00C0              add al,al
00004459  0200              add al,[eax]
0000445B  0030              add [eax],dh
0000445D  A004080200        mov al,[0x20804]
00004462  0000              add [eax],al
00004464  1200              adc al,[eax]
00004466  0E                push cs
00004467  00D0              add al,dl
00004469  0200              add al,[eax]
0000446B  0003              add [ebx],al
0000446D  97                xchg eax,edi
0000446E  0408              add al,0x8
00004470  8B00              mov eax,[eax]
00004472  0000              add [eax],al
00004474  2200              and al,[eax]
00004476  0E                push cs
00004477  00E6              add dh,ah
00004479  0C00              or al,0x0
0000447B  008087040800      add [eax+0x80487],al
00004481  0000              add [eax],al
00004483  0012              add [edx],dl
00004485  000E              add [esi],cl
00004487  002D030000D6      add [dword 0xd6000003],ch
0000448D  9D                popf
0000448E  0408              add al,0x8
00004490  0500000022        add eax,0x22000000
00004495  000E              add [esi],cl
00004497  005503            add [ebp+0x3],dl
0000449A  0000              add [eax],al
0000449C  7290              jc 0x442e
0000449E  0408              add al,0x8
000044A0  27                daa
000044A1  0000              add [eax],al
000044A3  0022              add [edx],ah
000044A5  000E              add [esi],cl
000044A7  0084030000B097    add [ebx+eax-0x68500000],al
000044AE  0408              add al,0x8
000044B0  670000            add [bx+si],al
000044B3  0022              add [edx],ah
000044B5  000E              add [esi],cl
000044B7  00B3030000E8      add [ebx-0x17fffffd],dh
000044BD  8C0408            mov [eax+ecx],es
000044C0  41                inc ecx
000044C1  0000              add [eax],al
000044C3  0022              add [edx],ah
000044C5  000E              add [esi],cl
000044C7  00D3              add bl,dl
000044C9  0300              add eax,[eax]
000044CB  002E              add [esi],ch
000044CD  9E                sahf
000044CE  0408              add al,0x8
000044D0  3300              xor eax,[eax]
000044D2  0000              add [eax],al
000044D4  2200              and al,[eax]
000044D6  0E                push cs
000044D7  000E              add [esi],cl
000044D9  0400              add al,0x0
000044DB  00EE              add dh,ch
000044DD  99                cdq
000044DE  0408              add al,0x8
000044E0  1900              sbb [eax],eax
000044E2  0000              add [eax],al
000044E4  2200              and al,[eax]
000044E6  0E                push cs
000044E7  002B              add [ebx],ch
000044E9  0400              add al,0x0
000044EB  00E0              add al,ah
000044ED  8F0408            pop dword [eax+ecx]
000044F0  2C00              sub al,0x0
000044F2  0000              add [eax],al
000044F4  2200              and al,[eax]
000044F6  0E                push cs
000044F7  004B04            add [ebx+0x4],cl
000044FA  0000              add [eax],al
000044FC  0000              add [eax],al
000044FE  0000              add [eax],al
00004500  0000              add [eax],al
00004502  0000              add [eax],al
00004504  2000              and [eax],al
00004506  0000              add [eax],al
00004508  5A                pop edx
00004509  0400              add al,0x0
0000450B  0000              add [eax],al
0000450D  0000              add [eax],al
0000450F  0000              add [eax],al
00004511  0000              add [eax],al
00004513  0020              add [eax],ah
00004515  0000              add [eax],al
00004517  006E04            add [esi+0x4],ch
0000451A  0000              add [eax],al
0000451C  61                popa
0000451D  9E                sahf
0000451E  0408              add al,0x8
00004520  1300              adc eax,[eax]
00004522  0000              add [eax],al
00004524  2200              and al,[eax]
00004526  0E                push cs
00004527  00E0              add al,ah
00004529  0400              add al,0x0
0000452B  00BE9904082F      add [esi+0x2f080499],bh
00004531  0000              add [eax],al
00004533  0022              add [edx],ah
00004535  000E              add [esi],cl
00004537  000B              add [ebx],cl
00004539  05000048A0        add eax,0xa0480000
0000453E  0408              add al,0x8
00004540  0400              add al,0x0
00004542  0000              add [eax],al
00004544  1100              adc [eax],eax
00004546  1000              adc [eax],al
00004548  120500000000      adc al,[dword 0x0]
0000454E  0000              add [eax],al
00004550  0000              add [eax],al
00004552  0000              add [eax],al
00004554  1200              adc al,[eax]
00004556  0000              add [eax],al
00004558  260500002C98      es add eax,0x982c0000
0000455E  0408              add al,0x8
00004560  0500000022        add eax,0x22000000
00004565  000E              add [esi],cl
00004567  004A05            add [edx+0x5],cl
0000456A  0000              add [eax],al
0000456C  FF8A04080800      dec dword [edx+0x80804]
00004572  0000              add [eax],al
00004574  2200              and al,[eax]
00004576  0E                push cs
00004577  008C050000709C    add [ebp+eax-0x63900000],cl
0000457E  0408              add al,0x8
00004580  1A00              sbb al,[eax]
00004582  0000              add [eax],al
00004584  2200              and al,[eax]
00004586  0E                push cs
00004587  009C050000908D    add [ebp+eax-0x72700000],bl
0000458E  0408              add al,0x8
00004590  2200              and al,[eax]
00004592  0000              add [eax],al
00004594  2200              and al,[eax]
00004596  0E                push cs
00004597  00CA              add dl,cl
00004599  0200              add al,[eax]
0000459B  0034A0            add [eax],dh
0000459E  0408              add al,0x8
000045A0  0000              add [eax],al
000045A2  0000              add [eax],al
000045A4  1200              adc al,[eax]
000045A6  0F00B705000069    jmpe dword [edi+0x69000005]
000045AD  9A04081A000000    call 0x0:0x1a0804
000045B4  2200              and al,[eax]
000045B6  0E                push cs
000045B7  0029              add [ecx],ch
000045B9  06                push es
000045BA  0000              add [eax],al
000045BC  189804081300      sbb [eax+0x130804],bl
000045C2  0000              add [eax],al
000045C4  2200              and al,[eax]
000045C6  0E                push cs
000045C7  0036              add [esi],dh
000045C9  06                push es
000045CA  0000              add [eax],al
000045CC  E68B              out 0x8b,al
000045CE  0408              add al,0x8
000045D0  1300              adc eax,[eax]
000045D2  0000              add [eax],al
000045D4  2200              and al,[eax]
000045D6  0E                push cs
000045D7  007106            add [ecx+0x6],dh
000045DA  0000              add [eax],al
000045DC  0000              add [eax],al
000045DE  0000              add [eax],al
000045E0  0000              add [eax],al
000045E2  0000              add [eax],al
000045E4  1200              adc al,[eax]
000045E6  0000              add [eax],al
000045E8  8B06              mov eax,[esi]
000045EA  0000              add [eax],al
000045EC  0000              add [eax],al
000045EE  0000              add [eax],al
000045F0  0000              add [eax],al
000045F2  0000              add [eax],al
000045F4  1200              adc al,[eax]
000045F6  0000              add [eax],al
000045F8  B006              mov al,0x6
000045FA  0000              add [eax],al
000045FC  D498              aam 0x98
000045FE  0408              add al,0x8
00004600  0800              or [eax],al
00004602  0000              add [eax],al
00004604  2200              and al,[eax]
00004606  0E                push cs
00004607  00EE              add dh,ch
00004609  06                push es
0000460A  0000              add [eax],al
0000460C  839A0408290000    sbb dword [edx+0x290804],byte +0x0
00004613  0022              add [edx],ah
00004615  000E              add [esi],cl
00004617  005C0700          add [edi+eax+0x0],bl
0000461B  005A8C            add [edx-0x74],bl
0000461E  0408              add al,0x8
00004620  660000            o16 add [eax],al
00004623  0022              add [edx],ah
00004625  000E              add [esi],cl
00004627  009807000024      add [eax+0x24000007],bl
0000462D  9F                lahf
0000462E  0408              add al,0x8
00004630  1300              adc eax,[eax]
00004632  0000              add [eax],al
00004634  2200              and al,[eax]
00004636  0E                push cs
00004637  00D1              add cl,dl
00004639  07                pop es
0000463A  0000              add [eax],al
0000463C  689D04081F        push dword 0x1f08049d
00004641  0000              add [eax],al
00004643  0022              add [edx],ah
00004645  000E              add [esi],cl
00004647  0017              add [edi],dl
00004649  0800              or [eax],al
0000464B  004A98            add [edx-0x68],cl
0000464E  0408              add al,0x8
00004650  3F                aas
00004651  0000              add [eax],al
00004653  0022              add [edx],ah
00004655  000E              add [esi],cl
00004657  004808            add [eax+0x8],cl
0000465A  0000              add [eax],al
0000465C  2C98              sub al,0x98
0000465E  0408              add al,0x8
00004660  0500000022        add eax,0x22000000
00004665  000E              add [esi],cl
00004667  006C0800          add [eax+ecx+0x0],ch
0000466B  0000              add [eax],al
0000466D  0000              add [eax],al
0000466F  0000              add [eax],al
00004671  0000              add [eax],al
00004673  0012              add [edx],dl
00004675  0000              add [eax],al
00004677  008908000032      add [ecx+0x32000008],cl
0000467D  8D0408            lea eax,[eax+ecx]
00004680  1A00              sbb al,[eax]
00004682  0000              add [eax],al
00004684  2200              and al,[eax]
00004686  0E                push cs
00004687  00AA080000E0      add [edx-0x1ffffff8],ch
0000468D  9E                sahf
0000468E  0408              add al,0x8
00004690  44                inc esp
00004691  0000              add [eax],al
00004693  0022              add [edx],ah
00004695  000E              add [esi],cl
00004697  00D6              add dh,dl
00004699  0800              or [eax],al
0000469B  002E              add [esi],ch
0000469D  90                nop
0000469E  0408              add al,0x8
000046A0  3000              xor [eax],al
000046A2  0000              add [eax],al
000046A4  2200              and al,[eax]
000046A6  0E                push cs
000046A7  000409            add [ecx+ecx],al
000046AA  0000              add [eax],al
000046AC  029D04081B00      add bl,[ebp+0x1b0804]
000046B2  0000              add [eax],al
000046B4  2200              and al,[eax]
000046B6  0E                push cs
000046B7  0025090000C6      add [dword 0xc6000009],ah
000046BD  8A0408            mov al,[eax+ecx]
000046C0  3900              cmp [eax],eax
000046C2  0000              add [eax],al
000046C4  2200              and al,[eax]
000046C6  0E                push cs
000046C7  003E              add [esi],bh
000046C9  0900              or [eax],eax
000046CB  0032              add [edx],dh
000046CD  98                cwde
000046CE  0408              add al,0x8
000046D0  1300              adc eax,[eax]
000046D2  0000              add [eax],al
000046D4  2200              and al,[eax]
000046D6  0E                push cs
000046D7  006E09            add [esi+0x9],ch
000046DA  0000              add [eax],al
000046DC  D08604080000      rol byte [esi+0x804],1
000046E2  0000              add [eax],al
000046E4  1200              adc al,[eax]
000046E6  0000              add [eax],al
000046E8  93                xchg eax,ebx
000046E9  0900              or [eax],eax
000046EB  00C0              add al,al
000046ED  8C0408            mov [eax+ecx],es
000046F0  1300              adc eax,[eax]
000046F2  0000              add [eax],al
000046F4  2200              and al,[eax]
000046F6  0E                push cs
000046F7  00C1              add cl,al
000046F9  0900              or [eax],eax
000046FB  0000              add [eax],al
000046FD  0000              add [eax],al
000046FF  0000              add [eax],al
00004701  0000              add [eax],al
00004703  0020              add [eax],ah
00004705  0000              add [eax],al
00004707  00DD              add ch,bl
00004709  0900              or [eax],eax
0000470B  0090930408BD      add [eax-0x42f7fb6d],dl
00004711  0100              add [eax],eax
00004713  0022              add [edx],ah
00004715  000E              add [esi],cl
00004717  00150A0000D4      add [dword 0xd400000a],dl
0000471D  8C0408            mov [eax+ecx],es
00004720  1300              adc eax,[eax]
00004722  0000              add [eax],al
00004724  2200              and al,[eax]
00004726  0E                push cs
00004727  00350A00008A      add [dword 0x8a00000a],dh
0000472D  98                cwde
0000472E  0408              add al,0x8
00004730  4A                dec edx
00004731  0000              add [eax],al
00004733  0022              add [edx],ah
00004735  000E              add [esi],cl
00004737  00720A            add [edx+0xa],dh
0000473A  0000              add [eax],al
0000473C  4C                dec esp
0000473D  A004080400        mov al,[0x40804]
00004742  0000              add [eax],al
00004744  1100              adc [eax],eax
00004746  1000              adc [eax],al
00004748  810A00002A8D      or dword [edx],0x8d2a0000
0000474E  0408              add al,0x8
00004750  0800              or [eax],al
00004752  0000              add [eax],al
00004754  2200              and al,[eax]
00004756  0E                push cs
00004757  00B40A0000958A    add [edx+ecx-0x756b0000],dh
0000475E  0408              add al,0x8
00004760  0800              or [eax],al
00004762  0000              add [eax],al
00004764  2200              and al,[eax]
00004766  0E                push cs
00004767  00BC0A00006793    add [edx+ecx-0x6c990000],bh
0000476E  0408              add al,0x8
00004770  2900              sub [eax],eax
00004772  0000              add [eax],al
00004774  2200              and al,[eax]
00004776  0E                push cs
00004777  002C0B            add [ebx+ecx],ch
0000477A  0000              add [eax],al
0000477C  AD                lodsd
0000477D  9D                popf
0000477E  0408              add al,0x8
00004780  2900              sub [eax],eax
00004782  0000              add [eax],al
00004784  2200              and al,[eax]
00004786  0E                push cs
00004787  00B20B00005A      add [edx+0x5a00000b],dh
0000478D  9A04080F000000    call 0x0:0xf0804
00004794  2200              and al,[eax]
00004796  0E                push cs
00004797  00F1              add cl,dh
00004799  0B00              or eax,[eax]
0000479B  009E8A040813      add [esi+0x1308048a],bl
000047A1  0000              add [eax],al
000047A3  0022              add [edx],ah
000047A5  000E              add [esi],cl
000047A7  0029              add [ecx],ch
000047A9  0C00              or al,0x0
000047AB  0000              add [eax],al
000047AD  0000              add [eax],al
000047AF  0000              add [eax],al
000047B1  0000              add [eax],al
000047B3  0012              add [edx],dl
000047B5  0000              add [eax],al
000047B7  003A              add [edx],bh
000047B9  0C00              or al,0x0
000047BB  00CD              add ch,cl
000047BD  9E                sahf
000047BE  0408              add al,0x8
000047C0  1300              adc eax,[eax]
000047C2  0000              add [eax],al
000047C4  2200              and al,[eax]
000047C6  0E                push cs
000047C7  008B0C00002E      add [ebx+0x2e00000c],cl
000047CD  9E                sahf
000047CE  0408              add al,0x8
000047D0  3300              xor eax,[eax]
000047D2  0000              add [eax],al
000047D4  2200              and al,[eax]
000047D6  0E                push cs
000047D7  00C6              add dh,al
000047D9  0C00              or al,0x0
000047DB  0000              add [eax],al
000047DD  0000              add [eax],al
000047DF  0000              add [eax],al
000047E1  0000              add [eax],al
000047E3  0020              add [eax],ah
000047E5  0000              add [eax],al
000047E7  00E0              add al,ah
000047E9  0C00              or al,0x0
000047EB  004CD004          add [eax+edx*8+0x4],cl
000047EF  0800              or [eax],al
000047F1  0000              add [eax],al
000047F3  0010              add [eax],dl
000047F5  001A              add [edx],bl
000047F7  00ED              add ch,ch
000047F9  0C00              or al,0x0
000047FB  00749104          add [ecx+edx*4+0x4],dh
000047FF  08F3              or bl,dh
00004801  0100              add [eax],eax
00004803  0022              add [edx],ah
00004805  000E              add [esi],cl
00004807  00520D            add [edx+0xd],dl
0000480A  0000              add [eax],al
0000480C  F098              lock cwde
0000480E  0408              add al,0x8
00004810  2900              sub [eax],eax
00004812  0000              add [eax],al
00004814  2200              and al,[eax]
00004816  0E                push cs
00004817  00DA              add dl,bl
00004819  0D0000BC90        or eax,0x90bc0000
0000481E  0408              add al,0x8
00004820  3C00              cmp al,0x0
00004822  0000              add [eax],al
00004824  2200              and al,[eax]
00004826  0E                push cs
00004827  00FD              add ch,bh
00004829  0D00009E8A        or eax,0x8a9e0000
0000482E  0408              add al,0x8
00004830  1300              adc eax,[eax]
00004832  0000              add [eax],al
00004834  2200              and al,[eax]
00004836  0E                push cs
00004837  00350E0000B2      add [dword 0xb200000e],dh
0000483D  8A0408            mov al,[eax+ecx]
00004840  1300              adc eax,[eax]
00004842  0000              add [eax],al
00004844  2200              and al,[eax]
00004846  0E                push cs
00004847  004E0E            add [esi+0xe],cl
0000484A  0000              add [eax],al
0000484C  DC9804081400      fcomp qword [eax+0x140804]
00004852  0000              add [eax],al
00004854  2200              and al,[eax]
00004856  0E                push cs
00004857  00660E            add [esi+0xe],ah
0000485A  0000              add [eax],al
0000485C  45                inc ebp
0000485D  98                cwde
0000485E  0408              add al,0x8
00004860  0500000022        add eax,0x22000000
00004865  000E              add [esi],cl
00004867  00950E000000      add [ebp+0xe],dl
0000486D  9E                sahf
0000486E  0408              add al,0x8
00004870  0D00000022        or eax,0x22000000
00004875  000E              add [esi],cl
00004877  00B40E0000E88C    add [esi+ecx-0x73180000],dh
0000487E  0408              add al,0x8
00004880  41                inc ecx
00004881  0000              add [eax],al
00004883  0022              add [edx],ah
00004885  000E              add [esi],cl
00004887  00D4              add ah,dl
00004889  0E                push cs
0000488A  0000              add [eax],al
0000488C  6A9C              push byte -0x64
0000488E  0408              add al,0x8
00004890  0500000022        add eax,0x22000000
00004895  000E              add [esi],cl
00004897  00F8              add al,bh
00004899  0E                push cs
0000489A  0000              add [eax],al
0000489C  8A9C0408080000    mov bl,[esp+eax+0x808]
000048A3  0022              add [edx],ah
000048A5  000E              add [esi],cl
000048A7  002B              add [ebx],ch
000048A9  0F0000            sldt [eax]
000048AC  CE                into
000048AD  9C                pushf
000048AE  0408              add al,0x8
000048B0  3300              xor eax,[eax]
000048B2  0000              add [eax],al
000048B4  2200              and al,[eax]
000048B6  0E                push cs
000048B7  00680F            add [eax+0xf],ch
000048BA  0000              add [eax],al
000048BC  D48C              aam 0x8c
000048BE  0408              add al,0x8
000048C0  1300              adc eax,[eax]
000048C2  0000              add [eax],al
000048C4  2200              and al,[eax]
000048C6  0E                push cs
000048C7  00880F0000B0      add [eax-0x4ffffff1],cl
000048CD  870408            xchg eax,[eax+ecx]
000048D0  0400              add al,0x0
000048D2  0000              add [eax],al
000048D4  1202              adc al,[edx]
000048D6  0E                push cs
000048D7  009E0F0000AC      add [esi-0x53fffff1],bl
000048DD  9A0408BD010000    call 0x0:0x1bd0804
000048E4  2200              and al,[eax]
000048E6  0E                push cs
000048E7  00D4              add ah,dl
000048E9  0F0000            sldt [eax]
000048EC  8E8F04085100      mov cs,[edi+0x510804]
000048F2  0000              add [eax],al
000048F4  2200              and al,[eax]
000048F6  0E                push cs
000048F7  002B              add [ebx],ch
000048F9  1000              adc [eax],al
000048FB  00888B04085E      add [eax+0x5e08048b],cl
00004901  0000              add [eax],al
00004903  0022              add [edx],ah
00004905  000E              add [esi],cl
00004907  006810            add [eax+0x10],ch
0000490A  0000              add [eax],al
0000490C  54                push esp
0000490D  D00408            rol byte [eax+ecx],1
00004910  0000              add [eax],al
00004912  0000              add [eax],al
00004914  1102              adc [edx],eax
00004916  1A00              sbb al,[eax]
00004918  7410              jz 0x492a
0000491A  0000              add [eax],al
0000491C  009E04080D00      add [esi+0xd0804],bl
00004922  0000              add [eax],al
00004924  2200              and al,[eax]
00004926  0E                push cs
00004927  009310000099      add [ebx-0x66fffff0],dl
0000492D  90                nop
0000492E  0408              add al,0x8
00004930  1A00              sbb al,[eax]
00004932  0000              add [eax],al
00004934  2200              and al,[eax]
00004936  0E                push cs
00004937  00AB100000D9      add [ebx-0x26fffff0],ch
0000493D  8E0408            mov es,[eax+ecx]
00004940  8D00              lea eax,[eax]
00004942  0000              add [eax],al
00004944  2200              and al,[eax]
00004946  0E                push cs
00004947  0003              add [ebx],al
00004949  1100              adc [eax],eax
0000494B  0050D0            add [eax-0x30],dl
0000494E  0408              add al,0x8
00004950  0000              add [eax],al
00004952  0000              add [eax],al
00004954  1102              adc [edx],eax
00004956  1A00              sbb al,[eax]
00004958  1011              adc [ecx],dl
0000495A  0000              add [eax],al
0000495C  B097              mov al,0x97
0000495E  0408              add al,0x8
00004960  670000            add [bx+si],al
00004963  0022              add [edx],ah
00004965  000E              add [esi],cl
00004967  003F              add [edi],bh
00004969  1100              adc [eax],eax
0000496B  001A              add [edx],bl
0000496D  99                cdq
0000496E  0408              add al,0x8
00004970  A4                movsb
00004971  0000              add [eax],al
00004973  0022              add [edx],ah
00004975  000E              add [esi],cl
00004977  006811            add [eax+0x11],ch
0000497A  0000              add [eax],al
0000497C  F8                clc
0000497D  90                nop
0000497E  0408              add al,0x8
00004980  0F0000            sldt [eax]
00004983  0022              add [edx],ah
00004985  000E              add [esi],cl
00004987  00A611000087      add [esi-0x78ffffef],ah
0000498D  9D                popf
0000498E  0408              add al,0x8
00004990  2100              and [eax],eax
00004992  0000              add [eax],al
00004994  2200              and al,[eax]
00004996  0E                push cs
00004997  00F1              add cl,dh
00004999  1100              adc [eax],eax
0000499B  00708D            add [eax-0x73],dh
0000499E  0408              add al,0x8
000049A0  1F                pop ds
000049A1  0000              add [eax],al
000049A3  0022              add [edx],ah
000049A5  000E              add [esi],cl
000049A7  000E              add [esi],cl
000049A9  1200              adc al,[eax]
000049AB  007A9F            add [edx-0x61],bh
000049AE  0408              add al,0x8
000049B0  0800              or [eax],al
000049B2  0000              add [eax],al
000049B4  2200              and al,[eax]
000049B6  0E                push cs
000049B7  003412            add [edx+edx],dh
000049BA  0000              add [eax],al
000049BC  D6                salc
000049BD  9D                popf
000049BE  0408              add al,0x8
000049C0  0500000022        add eax,0x22000000
000049C5  000E              add [esi],cl
000049C7  005C1200          add [edx+edx+0x0],bl
000049CB  00D0              add al,dl
000049CD  9F                lahf
000049CE  0408              add al,0x8
000049D0  5D                pop ebp
000049D1  0000              add [eax],al
000049D3  0012              add [edx],dl
000049D5  000E              add [esi],cl
000049D7  006C1200          add [edx+edx+0x0],ch
000049DB  0000              add [eax],al
000049DD  0000              add [eax],al
000049DF  0000              add [eax],al
000049E1  0000              add [eax],al
000049E3  0012              add [edx],dl
000049E5  0000              add [eax],al
000049E7  007E12            add [esi+0x12],bh
000049EA  0000              add [eax],al
000049EC  5E                pop esi
000049ED  90                nop
000049EE  0408              add al,0x8
000049F0  1300              adc eax,[eax]
000049F2  0000              add [eax],al
000049F4  2200              and al,[eax]
000049F6  0E                push cs
000049F7  008B1200007A      add [ebx+0x7a000012],cl
000049FD  8E0408            mov es,[eax+ecx]
00004A00  0800              or [eax],al
00004A02  0000              add [eax],al
00004A04  2200              and al,[eax]
00004A06  0E                push cs
00004A07  00C1              add cl,al
00004A09  1200              adc al,[eax]
00004A0B  005A9A            add [edx-0x66],bl
00004A0E  0408              add al,0x8
00004A10  0F0000            sldt [eax]
00004A13  0022              add [edx],ah
00004A15  000E              add [esi],cl
00004A17  0000              add [eax],al
00004A19  1300              adc eax,[eax]
00004A1B  0018              add [eax],bl
00004A1D  98                cwde
00004A1E  0408              add al,0x8
00004A20  1300              adc eax,[eax]
00004A22  0000              add [eax],al
00004A24  2200              and al,[eax]
00004A26  0E                push cs
00004A27  000D130000F8      add [dword 0xf8000013],cl
00004A2D  90                nop
00004A2E  0408              add al,0x8
00004A30  0F0000            sldt [eax]
00004A33  0022              add [edx],ah
00004A35  000E              add [esi],cl
00004A37  004B13            add [ebx+0x13],cl
00004A3A  0000              add [eax],al
00004A3C  0000              add [eax],al
00004A3E  0000              add [eax],al
00004A40  0000              add [eax],al
00004A42  0000              add [eax],al
00004A44  1200              adc al,[eax]
00004A46  0000              add [eax],al
00004A48  5E                pop esi
00004A49  1300              adc eax,[eax]
00004A4B  00839A040829      add [ebx+0x2908049a],al
00004A51  0000              add [eax],al
00004A53  0022              add [edx],ah
00004A55  000E              add [esi],cl
00004A57  00CC              add ah,cl
00004A59  1300              adc eax,[eax]
00004A5B  004E95            add [esi-0x6b],cl
00004A5E  0408              add al,0x8
00004A60  3300              xor eax,[eax]
00004A62  0000              add [eax],al
00004A64  2200              and al,[eax]
00004A66  0E                push cs
00004A67  0009              add [ecx],cl
00004A69  1400              adc al,0x0
00004A6B  00C6              add dh,al
00004A6D  8A0408            mov al,[eax+ecx]
00004A70  3900              cmp [eax],eax
00004A72  0000              add [eax],al
00004A74  2200              and al,[eax]
00004A76  0E                push cs
00004A77  0022              add [edx],ah
00004A79  1400              adc al,0x0
00004A7B  004A98            add [edx-0x68],cl
00004A7E  0408              add al,0x8
00004A80  3F                aas
00004A81  0000              add [eax],al
00004A83  0022              add [edx],ah
00004A85  000E              add [esi],cl
00004A87  005314            add [ebx+0x14],dl
00004A8A  0000              add [eax],al
00004A8C  4C                dec esp
00004A8D  8D0408            lea eax,[eax+ecx]
00004A90  2400              and al,0x0
00004A92  0000              add [eax],al
00004A94  2200              and al,[eax]
00004A96  0E                push cs
00004A97  006F14            add [edi+0x14],ch
00004A9A  0000              add [eax],al
00004A9C  B28A              mov dl,0x8a
00004A9E  0408              add al,0x8
00004AA0  1300              adc eax,[eax]
00004AA2  0000              add [eax],al
00004AA4  2200              and al,[eax]
00004AA6  0E                push cs
00004AA7  008814000054      add [eax+0x54000014],cl
00004AAD  D00408            rol byte [eax+ecx],1
00004AB0  0000              add [eax],al
00004AB2  0000              add [eax],al
00004AB4  1000              adc [eax],al
00004AB6  1B00              sbb eax,[eax]
00004AB8  94                xchg eax,esp
00004AB9  1400              adc al,0x0
00004ABB  001D9D04081B      add [dword 0x1b08049d],bl
00004AC1  0000              add [eax],al
00004AC3  0022              add [edx],ah
00004AC5  000E              add [esi],cl
00004AC7  00AA14000070      add [edx+0x70000014],ch
00004ACD  9C                pushf
00004ACE  0408              add al,0x8
00004AD0  1A00              sbb al,[eax]
00004AD2  0000              add [eax],al
00004AD4  2200              and al,[eax]
00004AD6  0E                push cs
00004AD7  00BA140000B3      add [edx-0x4cffffec],bh
00004ADD  90                nop
00004ADE  0408              add al,0x8
00004AE0  0800              or [eax],al
00004AE2  0000              add [eax],al
00004AE4  2200              and al,[eax]
00004AE6  0E                push cs
00004AE7  00F0              add al,dh
00004AE9  1400              adc al,0x0
00004AEB  002E              add [esi],ch
00004AED  90                nop
00004AEE  0408              add al,0x8
00004AF0  3000              xor [eax],al
00004AF2  0000              add [eax],al
00004AF4  2200              and al,[eax]
00004AF6  0E                push cs
00004AF7  001E              add [esi],bl
00004AF9  150000EE96        adc eax,0x96ee0000
00004AFE  0408              add al,0x8
00004B00  1500000022        adc eax,0x22000000
00004B05  000E              add [esi],cl
00004B07  005815            add [eax+0x15],bl
00004B0A  0000              add [eax],al
00004B0C  51                push ecx
00004B0D  8C0408            mov [eax+ecx],es
00004B10  0800              or [eax],al
00004B12  0000              add [eax],al
00004B14  2200              and al,[eax]
00004B16  0E                push cs
00004B17  008A1500000C      add [edx+0xc000015],cl
00004B1D  90                nop
00004B1E  0408              add al,0x8
00004B20  2200              and al,[eax]
00004B22  0000              add [eax],al
00004B24  2200              and al,[eax]
00004B26  0E                push cs
00004B27  00AC150000F098    add [ebp+edx-0x67100000],ch
00004B2E  0408              add al,0x8
00004B30  2900              sub [eax],eax
00004B32  0000              add [eax],al
00004B34  2200              and al,[eax]
00004B36  0E                push cs
00004B37  003416            add [esi+edx],dh
00004B3A  0000              add [eax],al
00004B3C  8E9704081A00      mov ss,[edi+0x1a0804]
00004B42  0000              add [eax],al
00004B44  2200              and al,[eax]
00004B46  0E                push cs
00004B47  006716            add [edi+0x16],ah
00004B4A  0000              add [eax],al
00004B4C  AC                lodsb
00004B4D  9A0408BD010000    call 0x0:0x1bd0804
00004B54  2200              and al,[eax]
00004B56  0E                push cs
00004B57  009D160000BC      add [ebp-0x43ffffea],bl
00004B5D  90                nop
00004B5E  0408              add al,0x8
00004B60  3C00              cmp al,0x0
00004B62  0000              add [eax],al
00004B64  2200              and al,[eax]
00004B66  0E                push cs
00004B67  00C0              add al,al
00004B69  16                push ss
00004B6A  0000              add [eax],al
00004B6C  AD                lodsd
00004B6D  9D                popf
00004B6E  0408              add al,0x8
00004B70  2900              sub [eax],eax
00004B72  0000              add [eax],al
00004B74  2200              and al,[eax]
00004B76  0E                push cs
00004B77  004617            add [esi+0x17],al
00004B7A  0000              add [eax],al
00004B7C  B28D              mov dl,0x8d
00004B7E  0408              add al,0x8
00004B80  C8000000          enter 0x0,0x0
00004B84  2200              and al,[eax]
00004B86  0E                push cs
00004B87  009E17000000      add [esi+0x17],bl
00004B8D  0000              add [eax],al
00004B8F  0000              add [eax],al
00004B91  0000              add [eax],al
00004B93  0012              add [edx],dl
00004B95  0000              add [eax],al
00004B97  00B117000038      add [ecx+0x38000017],dh
00004B9D  9D                popf
00004B9E  0408              add al,0x8
00004BA0  3000              xor [eax],al
00004BA2  0000              add [eax],al
00004BA4  2200              and al,[eax]
00004BA6  0E                push cs
00004BA7  00DF              add bh,bl
00004BA9  17                pop ss
00004BAA  0000              add [eax],al
00004BAC  0D9E040821        or eax,0x2108049e
00004BB1  0000              add [eax],al
00004BB3  0022              add [edx],ah
00004BB5  000E              add [esi],cl
00004BB7  001D180000FA      add [dword 0xfa000018],bl
00004BBD  8B0408            mov eax,[eax+ecx]
00004BC0  57                push edi
00004BC1  0000              add [eax],al
00004BC3  0022              add [edx],ah
00004BC5  000E              add [esi],cl
00004BC7  005718            add [edi+0x18],dl
00004BCA  0000              add [eax],al
00004BCC  6A91              push byte -0x6f
00004BCE  0408              add al,0x8
00004BD0  0A00              or al,[eax]
00004BD2  0000              add [eax],al
00004BD4  2200              and al,[eax]
00004BD6  0E                push cs
00004BD7  009218000081      add [edx-0x7effffe8],dl
00004BDD  95                xchg eax,ebp
00004BDE  0408              add al,0x8
00004BE0  3A01              cmp al,[ecx]
00004BE2  0000              add [eax],al
00004BE4  2200              and al,[eax]
00004BE6  0E                push cs
00004BE7  00C7              add bh,al
00004BE9  0100              add [eax],eax
00004BEB  0058D0            add [eax-0x30],bl
00004BEE  0408              add al,0x8
00004BF0  0000              add [eax],al
00004BF2  0000              add [eax],al
00004BF4  1000              adc [eax],al
00004BF6  1B00              sbb eax,[eax]
00004BF8  F5                cmc
00004BF9  1800              sbb [eax],al
00004BFB  0038              add [eax],bh
00004BFD  91                xchg eax,ecx
00004BFE  0408              add al,0x8
00004C00  3100              xor [eax],eax
00004C02  0000              add [eax],al
00004C04  2200              and al,[eax]
00004C06  0E                push cs
00004C07  0032              add [edx],dh
00004C09  1900              sbb [eax],eax
00004C0B  00DB              add bl,bl
00004C0D  9D                popf
00004C0E  0408              add al,0x8
00004C10  1300              adc eax,[eax]
00004C12  0000              add [eax],al
00004C14  2200              and al,[eax]
00004C16  0E                push cs
00004C17  006019            add [eax+0x19],ah
00004C1A  0000              add [eax],al
00004C1C  088B04087F00      or [ebx+0x7f0804],cl
00004C22  0000              add [eax],al
00004C24  2200              and al,[eax]
00004C26  0E                push cs
00004C27  00A019000000      add [eax+0x19],ah
00004C2D  0000              add [eax],al
00004C2F  0000              add [eax],al
00004C31  0000              add [eax],al
00004C33  0012              add [edx],dl
00004C35  0000              add [eax],al
00004C37  00BC1900000000    add [ecx+ebx+0x0],bh
00004C3E  0000              add [eax],al
00004C40  0000              add [eax],al
00004C42  0000              add [eax],al
00004C44  1200              adc al,[eax]
00004C46  0000              add [eax],al
00004C48  E219              loop 0x4c63
00004C4A  0000              add [eax],al
00004C4C  6793              xchg eax,ebx
00004C4E  0408              add al,0x8
00004C50  2900              sub [eax],eax
00004C52  0000              add [eax],al
00004C54  2200              and al,[eax]
00004C56  0E                push cs
00004C57  00521A            add [edx+0x1a],dl
00004C5A  0000              add [eax],al
00004C5C  A897              test al,0x97
00004C5E  0408              add al,0x8
00004C60  0800              or [eax],al
00004C62  0000              add [eax],al
00004C64  2200              and al,[eax]
00004C66  0E                push cs
00004C67  00861A0000CE      add [esi-0x31ffffe6],al
00004C6D  9C                pushf
00004C6E  0408              add al,0x8
00004C70  3300              xor eax,[eax]
00004C72  0000              add [eax],al
00004C74  2200              and al,[eax]
00004C76  0E                push cs
00004C77  00C3              add bl,al
00004C79  1A00              sbb al,[eax]
00004C7B  0000              add [eax],al
00004C7D  0000              add [eax],al
00004C7F  0000              add [eax],al
00004C81  0000              add [eax],al
00004C83  0012              add [edx],dl
00004C85  0000              add [eax],al
00004C87  00E1              add cl,ah
00004C89  1A00              sbb al,[eax]
00004C8B  00829F040849      add [edx+0x4908049f],al
00004C91  0000              add [eax],al
00004C93  0022              add [edx],ah
00004C95  000E              add [esi],cl
00004C97  0037              add [edi],dh
00004C99  1B00              sbb eax,[eax]
00004C9B  00959E040838      add [ebp+0x3808049e],dl
00004CA1  0000              add [eax],al
00004CA3  0022              add [edx],ah
00004CA5  000E              add [esi],cl
00004CA7  00661B            add [esi+0x1b],ah
00004CAA  0000              add [eax],al
00004CAC  EE                out dx,al
00004CAD  9D                popf
00004CAE  0408              add al,0x8
00004CB0  0800              or [eax],al
00004CB2  0000              add [eax],al
00004CB4  2200              and al,[eax]
00004CB6  0E                push cs
00004CB7  009A1B0000C0      add [edx-0x3fffffe5],bl
00004CBD  8C0408            mov [eax+ecx],es
00004CC0  1300              adc eax,[eax]
00004CC2  0000              add [eax],al
00004CC4  2200              and al,[eax]
00004CC6  0E                push cs
00004CC7  00C8              add al,cl
00004CC9  1B00              sbb eax,[eax]
00004CCB  00709F            add [eax-0x61],dh
00004CCE  0408              add al,0x8
00004CD0  0A00              or al,[eax]
00004CD2  0000              add [eax],al
00004CD4  2200              and al,[eax]
00004CD6  0E                push cs
00004CD7  00E9              add cl,ch
00004CD9  1B00              sbb eax,[eax]
00004CDB  0054D004          add [eax+edx*8+0x4],dl
00004CDF  0800              or [eax],al
00004CE1  0000              add [eax],al
00004CE3  0010              add [eax],dl
00004CE5  001A              add [edx],bl
00004CE7  00F0              add al,dh
00004CE9  1B00              sbb eax,[eax]
00004CEB  005087            add [eax-0x79],dl
00004CEE  0408              add al,0x8
00004CF0  0000              add [eax],al
00004CF2  0000              add [eax],al
00004CF4  1200              adc al,[eax]
00004CF6  0000              add [eax],al
00004CF8  111C00            adc [eax+eax],ebx
00004CFB  00A89D040805      add [eax+0x508049d],ch
00004D01  0000              add [eax],al
00004D03  0022              add [edx],ah
00004D05  000E              add [esi],cl
00004D07  00411C            add [ecx+0x1c],al
00004D0A  0000              add [eax],al
00004D0C  5E                pop esi
00004D0D  90                nop
00004D0E  0408              add al,0x8
00004D10  1300              adc eax,[eax]
00004D12  0000              add [eax],al
00004D14  2200              and al,[eax]
00004D16  0E                push cs
00004D17  004E1C            add [esi+0x1c],cl
00004D1A  0000              add [eax],al
00004D1C  F69D04080A00      neg byte [ebp+0xa0804]
00004D22  0000              add [eax],al
00004D24  2200              and al,[eax]
00004D26  0E                push cs
00004D27  007A1C            add [edx+0x1c],bh
00004D2A  0000              add [eax],al
00004D2C  BC96040827        mov esp,0x27080496
00004D31  0000              add [eax],al
00004D33  0022              add [edx],ah
00004D35  000E              add [esi],cl
00004D37  00981C00004A      add [eax+0x4a00001c],bl
00004D3D  9F                lahf
00004D3E  0408              add al,0x8
00004D40  2500000022        and eax,0x22000000
00004D45  000E              add [esi],cl
00004D47  00C3              add bl,al
00004D49  1C00              sbb al,0x0
00004D4B  0000              add [eax],al
00004D4D  0000              add [eax],al
00004D4F  0000              add [eax],al
00004D51  0000              add [eax],al
00004D53  0012              add [edx],dl
00004D55  0000              add [eax],al
00004D57  00DB              add bl,bl
00004D59  1C00              sbb al,0x0
00004D5B  00828E040857      add [edx+0x5708048e],al
00004D61  0000              add [eax],al
00004D63  0022              add [edx],ah
00004D65  000E              add [esi],cl
00004D67  00FE              add dh,bh
00004D69  1C00              sbb al,0x0
00004D6B  0008              add [eax],cl
00004D6D  8B0408            mov eax,[eax+ecx]
00004D70  7F00              jg 0x4d72
00004D72  0000              add [eax],al
00004D74  2200              and al,[eax]
00004D76  0E                push cs
00004D77  003E              add [esi],bh
00004D79  1D00009093        sbb eax,0x93900000
00004D7E  0408              add al,0x8
00004D80  BD01000022        mov ebp,0x22000001
00004D85  000E              add [esi],cl
00004D87  00761D            add [esi+0x1d],dh
00004D8A  0000              add [eax],al
00004D8C  749E              jz 0x4d2c
00004D8E  0408              add al,0x8
00004D90  2100              and [eax],eax
00004D92  0000              add [eax],al
00004D94  2200              and al,[eax]
00004D96  0E                push cs
00004D97  00CD              add ch,cl
00004D99  1D0000379F        sbb eax,0x9f370000
00004D9E  0408              add al,0x8
00004DA0  1300              adc eax,[eax]
00004DA2  0000              add [eax],al
00004DA4  2200              and al,[eax]
00004DA6  0E                push cs
00004DA7  000B              add [ebx],cl
00004DA9  1E                push ds
00004DAA  0000              add [eax],al
00004DAC  E496              in al,0x96
00004DAE  0408              add al,0x8
00004DB0  0A00              or al,[eax]
00004DB2  0000              add [eax],al
00004DB4  2200              and al,[eax]
00004DB6  0E                push cs
00004DB7  007301            add [ebx+0x1],dh
00004DBA  0000              add [eax],al
00004DBC  7D88              jnl 0x4d46
00004DBE  0408              add al,0x8
00004DC0  BD01000012        mov ebp,0x12000001
00004DC5  000E              add [esi],cl
00004DC7  006612            add [esi+0x12],ah
00004DCA  0000              add [eax],al
00004DCC  308604080000      xor [esi+0x804],al
00004DD2  0000              add [eax],al
00004DD4  1200              adc al,[eax]
00004DD6  0B00              or eax,[eax]
00004DD8  47                inc edi
00004DD9  1E                push ds
00004DDA  0000              add [eax],al
00004DDC  6A9C              push byte -0x64
00004DDE  0408              add al,0x8
00004DE0  0500000022        add eax,0x22000000
00004DE5  000E              add [esi],cl
00004DE7  006B1E            add [ebx+0x1e],ch
00004DEA  0000              add [eax],al
00004DEC  07                pop es
00004DED  91                xchg eax,ecx
00004DEE  0408              add al,0x8
00004DF0  3000              xor [eax],al
00004DF2  0000              add [eax],al
00004DF4  2200              and al,[eax]
00004DF6  0E                push cs
00004DF7  0000              add [eax],al
00004DF9  637274            arpl [edx+0x74],si
00004DFC  7374              jnc 0x4e72
00004DFE  7566              jnz 0x4e66
00004E00  662E6300          o16 arpl [cs:eax],ax
00004E04  5F                pop edi
00004E05  5F                pop edi
00004E06  4A                dec edx
00004E07  43                inc ebx
00004E08  52                push edx
00004E09  5F                pop edi
00004E0A  4C                dec esp
00004E0B  49                dec ecx
00004E0C  53                push ebx
00004E0D  54                push esp
00004E0E  5F                pop edi
00004E0F  5F                pop edi
00004E10  00646572          add [ebp+0x72],ah
00004E14  656769737465725F  imul esi,[gs:bp+di+0x74],dword 0x745f7265
         -74
00004E1D  6D                insd
00004E1E  5F                pop edi
00004E1F  636C6F6E          arpl [edi+ebp*2+0x6e],bp
00004E23  657300            gs jnc 0x4e26
00004E26  5F                pop edi
00004E27  5F                pop edi
00004E28  646F              fs outsd
00004E2A  5F                pop edi
00004E2B  676C              a16 insb
00004E2D  6F                outsd
00004E2E  62616C            bound esp,[ecx+0x6c]
00004E31  5F                pop edi
00004E32  64746F            fs jz 0x4ea4
00004E35  7273              jc 0x4eaa
00004E37  5F                pop edi
00004E38  61                popa
00004E39  7578              jnz 0x4eb3
00004E3B  00636F            add [ebx+0x6f],ah
00004E3E  6D                insd
00004E3F  706C              jo 0x4ead
00004E41  657465            gs jz 0x4ea9
00004E44  642E3636313400    xor [ss:eax+eax],esi
00004E4B  5F                pop edi
00004E4C  5F                pop edi
00004E4D  646F              fs outsd
00004E4F  5F                pop edi
00004E50  676C              a16 insb
00004E52  6F                outsd
00004E53  62616C            bound esp,[ecx+0x6c]
00004E56  5F                pop edi
00004E57  64746F            fs jz 0x4ec9
00004E5A  7273              jc 0x4ecf
00004E5C  5F                pop edi
00004E5D  61                popa
00004E5E  7578              jnz 0x4ed8
00004E60  5F                pop edi
00004E61  66696E695F61      imul bp,[esi+0x69],word 0x615f
00004E67  7272              jc 0x4edb
00004E69  61                popa
00004E6A  795F              jns 0x4ecb
00004E6C  656E              gs outsb
00004E6E  7472              jz 0x4ee2
00004E70  7900              jns 0x4e72
00004E72  667261            o16 jc 0x4ed6
00004E75  6D                insd
00004E76  655F              gs pop edi
00004E78  64756D            fs jnz 0x4ee8
00004E7B  6D                insd
00004E7C  7900              jns 0x4e7e
00004E7E  5F                pop edi
00004E7F  5F                pop edi
00004E80  667261            o16 jc 0x4ee4
00004E83  6D                insd
00004E84  655F              gs pop edi
00004E86  64756D            fs jnz 0x4ef6
00004E89  6D                insd
00004E8A  795F              jns 0x4eeb
00004E8C  696E69745F6172    imul ebp,[esi+0x69],dword 0x72615f74
00004E93  7261              jc 0x4ef6
00004E95  795F              jns 0x4ef6
00004E97  656E              gs outsb
00004E99  7472              jz 0x4f0d
00004E9B  7900              jns 0x4e9d
00004E9D  3536353437        xor eax,0x37343536
00004EA2  3432              xor al,0x32
00004EA4  3833              cmp [ebx],dh
00004EA6  3533393636        xor eax,0x36363933
00004EAB  3038              xor [eax],bh
00004EAD  5F                pop edi
00004EAE  6B696369          imul ebp,[ecx+0x63],byte +0x69
00004EB2  7573              jnz 0x4f27
00004EB4  2E637070          arpl [cs:eax+0x70],si
00004EB8  005F5A            add [edi+0x5a],bl
00004EBB  53                push ebx
00004EBC  744C              jz 0x4f0a
00004EBE  3139              xor [ecx],edi
00004EC0  7069              jo 0x4f2b
00004EC2  65636577          arpl [gs:ebp+0x77],sp
00004EC6  6973655F636F6E    imul esi,[ebx+0x65],dword 0x6e6f635f
00004ECD  7374              jnc 0x4f43
00004ECF  7275              jc 0x4f46
00004ED1  6374005F          arpl [eax+eax+0x5f],si
00004ED5  5A                pop edx
00004ED6  53                push ebx
00004ED7  744C              jz 0x4f25
00004ED9  3133              xor [ebx],esi
00004EDB  61                popa
00004EDC  6C                insb
00004EDD  6C                insb
00004EDE  6F                outsd
00004EDF  636174            arpl [ecx+0x74],sp
00004EE2  6F                outsd
00004EE3  725F              jc 0x4f44
00004EE5  61                popa
00004EE6  7267              jc 0x4f4f
00004EE8  005F5A            add [edi+0x5a],bl
00004EEB  53                push ebx
00004EEC  744C              jz 0x4f3a
00004EEE  3669676E6F726500  imul esp,[ss:edi+0x6e],dword 0x65726f
00004EF6  5F                pop edi
00004EF7  5A                pop edx
00004EF8  53                push ebx
00004EF9  744C              jz 0x4f47
00004EFB  385F5F            cmp [edi+0x5f],bl
00004EFE  696F696E697400    imul ebp,[edi+0x69],dword 0x74696e
00004F05  5F                pop edi
00004F06  5A                pop edx
00004F07  3431              xor al,0x31
00004F09  5F                pop edi
00004F0A  5F                pop edi
00004F0B  7374              jnc 0x4f81
00004F0D  61                popa
00004F0E  7469              jz 0x4f79
00004F10  635F69            arpl [edi+0x69],bx
00004F13  6E                outsb
00004F14  697469616C697A61  imul esi,[ecx+ebp*2+0x61],dword 0x617a696c
00004F1C  7469              jz 0x4f87
00004F1E  6F                outsd
00004F1F  6E                outsb
00004F20  5F                pop edi
00004F21  61                popa
00004F22  6E                outsb
00004F23  645F              fs pop edi
00004F25  64657374          gs jnc 0x4f9d
00004F29  7275              jc 0x4fa0
00004F2B  6374696F          arpl [ecx+ebp*2+0x6f],si
00004F2F  6E                outsb
00004F30  5F                pop edi
00004F31  306969            xor [ecx+0x69],ch
00004F34  005F5A            add [edi+0x5a],bl
00004F37  4E                dec esi
00004F38  395F5F            cmp [edi+0x5f],ebx
00004F3B  676E              a16 outsb
00004F3D  755F              jnz 0x4f9e
00004F3F  637878            arpl [eax+0x78],di
00004F42  4C                dec esp
00004F43  3231              xor dh,[ecx]
00004F45  5F                pop edi
00004F46  5F                pop edi
00004F47  64656661          gs popaw
00004F4B  756C              jnz 0x4fb9
00004F4D  745F              jz 0x4fae
00004F4F  6C                insb
00004F50  6F                outsd
00004F51  636B5F            arpl [ebx+0x5f],bp
00004F54  706F              jo 0x4fc5
00004F56  6C                insb
00004F57  69637945005F47    imul esp,[ebx+0x79],dword 0x475f0045
00004F5E  4C                dec esp
00004F5F  4F                dec edi
00004F60  42                inc edx
00004F61  41                inc ecx
00004F62  4C                dec esp
00004F63  5F                pop edi
00004F64  5F                pop edi
00004F65  7375              jnc 0x4fdc
00004F67  625F49            bound ebx,[edi+0x49]
00004F6A  5F                pop edi
00004F6B  6D                insd
00004F6C  61                popa
00004F6D  696E005F5F4652    imul ebp,[esi+0x0],dword 0x52465f5f
00004F74  41                inc ecx
00004F75  4D                dec ebp
00004F76  45                inc ebp
00004F77  5F                pop edi
00004F78  45                inc ebp
00004F79  4E                dec esi
00004F7A  44                inc esp
00004F7B  5F                pop edi
00004F7C  5F                pop edi
00004F7D  005F5F            add [edi+0x5f],bl
00004F80  4A                dec edx
00004F81  43                inc ebx
00004F82  52                push edx
00004F83  5F                pop edi
00004F84  45                inc ebp
00004F85  4E                dec esi
00004F86  44                inc esp
00004F87  5F                pop edi
00004F88  5F                pop edi
00004F89  005F5F            add [edi+0x5f],bl
00004F8C  47                inc edi
00004F8D  4E                dec esi
00004F8E  55                push ebp
00004F8F  5F                pop edi
00004F90  45                inc ebp
00004F91  48                dec eax
00004F92  5F                pop edi
00004F93  46                inc esi
00004F94  52                push edx
00004F95  41                inc ecx
00004F96  4D                dec ebp
00004F97  45                inc ebp
00004F98  5F                pop edi
00004F99  48                dec eax
00004F9A  44                inc esp
00004F9B  52                push edx
00004F9C  005F47            add [edi+0x47],bl
00004F9F  4C                dec esp
00004FA0  4F                dec edi
00004FA1  42                inc edx
00004FA2  41                inc ecx
00004FA3  4C                dec esp
00004FA4  5F                pop edi
00004FA5  4F                dec edi
00004FA6  46                inc esi
00004FA7  46                inc esi
00004FA8  53                push ebx
00004FA9  45                inc ebp
00004FAA  54                push esp
00004FAB  5F                pop edi
00004FAC  54                push esp
00004FAD  41                inc ecx
00004FAE  42                inc edx
00004FAF  4C                dec esp
00004FB0  45                inc ebp
00004FB1  5F                pop edi
00004FB2  005F5F            add [edi+0x5f],bl
00004FB5  696E69745F6172    imul ebp,[esi+0x69],dword 0x72615f74
00004FBC  7261              jc 0x501f
00004FBE  795F              jns 0x501f
00004FC0  656E              gs outsb
00004FC2  64005F5F          add [fs:edi+0x5f],bl
00004FC6  696E69745F6172    imul ebp,[esi+0x69],dword 0x72615f74
00004FCD  7261              jc 0x5030
00004FCF  795F              jns 0x5030
00004FD1  7374              jnc 0x5047
00004FD3  61                popa
00004FD4  7274              jc 0x504a
00004FD6  005F44            add [edi+0x44],bl
00004FD9  59                pop ecx
00004FDA  4E                dec esi
00004FDB  41                inc ecx
00004FDC  4D                dec ebp
00004FDD  49                dec ecx
00004FDE  43                inc ebx
00004FDF  005F5A            add [edi+0x5a],bl
00004FE2  4E                dec esi
00004FE3  53                push ebx
00004FE4  7436              jz 0x501c
00004FE6  7665              jna 0x504d
00004FE8  63746F72          arpl [edi+ebp*2+0x72],si
00004FEC  49                dec ecx
00004FED  69536149694545    imul edx,[ebx+0x61],dword 0x45456949
00004FF4  43                inc ebx
00004FF5  32454F            xor al,[ebp+0x4f]
00004FF8  53                push ebx
00004FF9  315F00            xor [edi+0x0],ebx
00004FFC  5F                pop edi
00004FFD  5A                pop edx
00004FFE  53                push ebx
00004FFF  7432              jz 0x5033
00005001  305F5F            xor [edi+0x5f],bl
00005004  7468              jz 0x506e
00005006  726F              jc 0x5077
00005008  775F              ja 0x5069
0000500A  6C                insb
0000500B  656E              gs outsb
0000500D  677468            jz 0x5078
00005010  5F                pop edi
00005011  657272            gs jc 0x5086
00005014  6F                outsd
00005015  7250              jc 0x5067
00005017  4B                dec ebx
00005018  634040            arpl [eax+0x40],ax
0000501B  47                inc edi
0000501C  4C                dec esp
0000501D  49                dec ecx
0000501E  42                inc edx
0000501F  43                inc ebx
00005020  58                pop eax
00005021  58                pop eax
00005022  5F                pop edi
00005023  332E              xor ebp,[esi]
00005025  3400              xor al,0x0
00005027  5F                pop edi
00005028  5A                pop edx
00005029  53                push ebx
0000502A  7434              jz 0x5060
0000502C  7377              jnc 0x50a5
0000502E  61                popa
0000502F  7049              jo 0x507a
00005031  50                push eax
00005032  69457652545F53    imul eax,[ebp+0x76],dword 0x535f5452
00005039  325F00            xor bl,[edi+0x0]
0000503C  5F                pop edi
0000503D  5A                pop edx
0000503E  53                push ebx
0000503F  7433              jz 0x5074
00005041  345F              xor al,0x5f
00005043  5F                pop edi
00005044  756E              jnz 0x50b4
00005046  696E697469616C    imul ebp,[esi+0x69],dword 0x6c616974
0000504D  697A65645F6D6F    imul edi,[edx+0x65],dword 0x6f6d5f64
00005054  7665              jna 0x50bb
00005056  5F                pop edi
00005057  69665F6E6F6578    imul esp,[esi+0x5f],dword 0x78656f6e
0000505E  636570            arpl [ebp+0x70],sp
00005061  745F              jz 0x50c2
00005063  61                popa
00005064  49                dec ecx
00005065  50                push eax
00005066  6953305F536149    imul edx,[ebx+0x30],dword 0x4961535f
0000506D  69454554305F54    imul eax,[ebp+0x45],dword 0x545f3054
00005074  5F                pop edi
00005075  53                push ebx
00005076  335F53            xor ebx,[edi+0x53]
00005079  325F52            xor bl,[edi+0x52]
0000507C  54                push esp
0000507D  315F00            xor [edi+0x0],ebx
00005080  5F                pop edi
00005081  5F                pop edi
00005082  637861            arpl [eax+0x61],di
00005085  5F                pop edi
00005086  61                popa
00005087  7465              jz 0x50ee
00005089  7869              js 0x50f4
0000508B  7440              jz 0x50cd
0000508D  40                inc eax
0000508E  47                inc edi
0000508F  4C                dec esp
00005090  49                dec ecx
00005091  42                inc edx
00005092  43                inc ebx
00005093  5F                pop edi
00005094  322E              xor ch,[esi]
00005096  312E              xor [esi],ebp
00005098  3300              xor eax,[eax]
0000509A  5F                pop edi
0000509B  5A                pop edx
0000509C  4E                dec esi
0000509D  4B                dec ebx
0000509E  53                push ebx
0000509F  7436              jz 0x50d7
000050A1  7665              jna 0x5108
000050A3  63746F72          arpl [edi+ebp*2+0x72],si
000050A7  49                dec ecx
000050A8  69536149694545    imul edx,[ebx+0x61],dword 0x45456949
000050AF  3566726F6E        xor eax,0x6e6f7266
000050B4  7445              jz 0x50fb
000050B6  7600              jna 0x50b8
000050B8  5F                pop edi
000050B9  5F                pop edi
000050BA  6C                insb
000050BB  6962635F637375    imul esp,[edx+0x63],dword 0x7573635f
000050C2  5F                pop edi
000050C3  66696E69005F      imul bp,[esi+0x69],word 0x5f00
000050C9  5A                pop edx
000050CA  53                push ebx
000050CB  7431              jz 0x50fe
000050CD  305F5F            xor [edi+0x5f],bl
000050D0  706F              jo 0x5141
000050D2  705F              jo 0x5133
000050D4  6865617049        push dword 0x49706165
000050D9  4E                dec esi
000050DA  395F5F            cmp [edi+0x5f],ebx
000050DD  676E              a16 outsb
000050DF  755F              jnz 0x5140
000050E1  637878            arpl [eax+0x78],di
000050E4  3137              xor [edi],esi
000050E6  5F                pop edi
000050E7  5F                pop edi
000050E8  6E                outsb
000050E9  6F                outsd
000050EA  726D              jc 0x5159
000050EC  61                popa
000050ED  6C                insb
000050EE  5F                pop edi
000050EF  6974657261746F72  imul esi,[ebp+0x72],dword 0x726f7461
000050F7  49                dec ecx
000050F8  50                push eax
000050F9  69537436766563    imul edx,[ebx+0x74],dword 0x63657636
00005100  746F              jz 0x5171
00005102  7249              jc 0x514d
00005104  69536149694545    imul edx,[ebx+0x61],dword 0x45456949
0000510B  45                inc ebp
0000510C  45                inc ebp
0000510D  53                push ebx
0000510E  7434              jz 0x5144
00005110  6C                insb
00005111  657373            gs jnc 0x5187
00005114  49                dec ecx
00005115  69454576545F53    imul eax,[ebp+0x45],dword 0x535f5476
0000511C  395F53            cmp [edi+0x53],ebx
0000511F  395F54            cmp [edi+0x54],ebx
00005122  305F00            xor [edi+0x0],bl
00005125  5F                pop edi
00005126  5A                pop edx
00005127  4E                dec esi
00005128  395F5F            cmp [edi+0x5f],ebx
0000512B  676E              a16 outsb
0000512D  755F              jnz 0x518e
0000512F  637878            arpl [eax+0x78],di
00005132  3133              xor [ebx],esi
00005134  6E                outsb
00005135  65775F            gs ja 0x5197
00005138  61                popa
00005139  6C                insb
0000513A  6C                insb
0000513B  6F                outsd
0000513C  636174            arpl [ecx+0x74],sp
0000513F  6F                outsd
00005140  7249              jc 0x518b
00005142  6945433145524B    imul eax,[ebp+0x43],dword 0x4b524531
00005149  53                push ebx
0000514A  315F00            xor [edi+0x0],ebx
0000514D  5F                pop edi
0000514E  5A                pop edx
0000514F  4E                dec esi
00005150  53                push ebx
00005151  7431              jz 0x5184
00005153  325F56            xor bl,[edi+0x56]
00005156  6563746F72        arpl [gs:edi+ebp*2+0x72],si
0000515B  5F                pop edi
0000515C  626173            bound esp,[ecx+0x73]
0000515F  6549              gs dec ecx
00005161  69536149694545    imul edx,[ebx+0x61],dword 0x45456949
00005168  3133              xor [ebx],esi
0000516A  5F                pop edi
0000516B  4D                dec ebp
0000516C  5F                pop edi
0000516D  646561            gs popa
00005170  6C                insb
00005171  6C                insb
00005172  6F                outsd
00005173  636174            arpl [ecx+0x74],sp
00005176  6545              gs inc ebp
00005178  50                push eax
00005179  696A005F5A4E53    imul ebp,[edx+0x0],dword 0x534e5a5f
00005180  7436              jz 0x51b8
00005182  7665              jna 0x51e9
00005184  63746F72          arpl [edi+ebp*2+0x72],si
00005188  49                dec ecx
00005189  69536149694545    imul edx,[ebx+0x61],dword 0x45456949
00005190  3132              xor [edx],esi
00005192  656D              gs insd
00005194  706C              jo 0x5202
00005196  61                popa
00005197  63655F            arpl [ebp+0x5f],sp
0000519A  626163            bound esp,[ecx+0x63]
0000519D  6B494A69          imul ecx,[ecx+0x4a],byte +0x69
000051A1  45                inc ebp
000051A2  45                inc ebp
000051A3  45                inc ebp
000051A4  7644              jna 0x51ea
000051A6  704F              jo 0x51f7
000051A8  54                push esp
000051A9  5F                pop edi
000051AA  005F5A            add [edi+0x5a],bl
000051AD  4E                dec esi
000051AE  53                push ebx
000051AF  7431              jz 0x51e2
000051B1  325F56            xor bl,[edi+0x56]
000051B4  6563746F72        arpl [gs:edi+ebp*2+0x72],si
000051B9  5F                pop edi
000051BA  626173            bound esp,[ecx+0x73]
000051BD  6549              gs dec ecx
000051BF  69536149694545    imul edx,[ebx+0x61],dword 0x45456949
000051C6  44                inc esp
000051C7  324576            xor al,[ebp+0x76]
000051CA  005F5A            add [edi+0x5a],bl
000051CD  4E                dec esi
000051CE  395F5F            cmp [edi+0x5f],ebx
000051D1  676E              a16 outsb
000051D3  755F              jnz 0x5234
000051D5  637878            arpl [eax+0x78],di
000051D8  3133              xor [ebx],esi
000051DA  6E                outsb
000051DB  65775F            gs ja 0x523d
000051DE  61                popa
000051DF  6C                insb
000051E0  6C                insb
000051E1  6F                outsd
000051E2  636174            arpl [ecx+0x74],sp
000051E5  6F                outsd
000051E6  7249              jc 0x5231
000051E8  694539636F6E73    imul eax,[ebp+0x39],dword 0x736e6f63
000051EF  7472              jz 0x5263
000051F1  7563              jnz 0x5256
000051F3  7449              jz 0x523e
000051F5  694A6945454576    imul ecx,[edx+0x69],dword 0x76454545
000051FC  50                push eax
000051FD  54                push esp
000051FE  5F                pop edi
000051FF  44                inc esp
00005200  704F              jo 0x5251
00005202  54                push esp
00005203  305F00            xor [edi+0x0],bl
00005206  5F                pop edi
00005207  5A                pop edx
00005208  4E                dec esi
00005209  4B                dec ebx
0000520A  53                push ebx
0000520B  7436              jz 0x5243
0000520D  7665              jna 0x5274
0000520F  63746F72          arpl [edi+ebp*2+0x72],si
00005213  49                dec ecx
00005214  69536149694545    imul edx,[ebx+0x61],dword 0x45456949
0000521B  3473              xor al,0x73
0000521D  697A654576005F    imul edi,[edx+0x65],dword 0x5f007645
00005224  5A                pop edx
00005225  4E                dec esi
00005226  53                push ebx
00005227  7436              jz 0x525f
00005229  7665              jna 0x5290
0000522B  63746F72          arpl [edi+ebp*2+0x72],si
0000522F  49                dec ecx
00005230  69536149694545    imul edx,[ebx+0x61],dword 0x45456949
00005237  38706F            cmp [eax+0x6f],dh
0000523A  705F              jo 0x529b
0000523C  626163            bound esp,[ecx+0x63]
0000523F  6B457600          imul eax,[ebp+0x76],byte +0x0
00005243  5F                pop edi
00005244  5F                pop edi
00005245  676D              a16 insd
00005247  6F                outsd
00005248  6E                outsb
00005249  5F                pop edi
0000524A  7374              jnc 0x52c0
0000524C  61                popa
0000524D  7274              jc 0x52c3
0000524F  5F                pop edi
00005250  5F                pop edi
00005251  005F4A            add [edi+0x4a],bl
00005254  765F              jna 0x52b5
00005256  52                push edx
00005257  6567697374657243  imul esi,[gs:bp+di+0x74],dword 0x6c437265
         -6C
00005260  61                popa
00005261  7373              jnc 0x52d6
00005263  657300            gs jnc 0x5266
00005266  5F                pop edi
00005267  5A                pop edx
00005268  4E                dec esi
00005269  53                push ebx
0000526A  7431              jz 0x529d
0000526C  3661              ss popa
0000526E  6C                insb
0000526F  6C                insb
00005270  6F                outsd
00005271  636174            arpl [ecx+0x74],sp
00005274  6F                outsd
00005275  725F              jc 0x52d6
00005277  7472              jz 0x52eb
00005279  61                popa
0000527A  6974734953614969  imul esi,[ebx+esi*2+0x49],dword 0x69496153
00005282  45                inc ebp
00005283  45                inc ebp
00005284  3131              xor [ecx],esi
00005286  5F                pop edi
00005287  53                push ebx
00005288  5F                pop edi
00005289  6D                insd
0000528A  61                popa
0000528B  785F              js 0x52ec
0000528D  7369              jnc 0x52f8
0000528F  7A65              jpe 0x52f6
00005291  49                dec ecx
00005292  4B                dec ebx
00005293  53                push ebx
00005294  305F45            xor [edi+0x45],bl
00005297  45                inc ebp
00005298  4E                dec esi
00005299  53                push ebx
0000529A  7439              jz 0x52d5
0000529C  656E              gs outsb
0000529E  61                popa
0000529F  626C655F          bound ebp,[ebp+0x5f]
000052A3  6966495873724E    imul esp,[esi+0x49],dword 0x4e727358
000052AA  53                push ebx
000052AB  315F31            xor [edi+0x31],ebx
000052AE  365F              ss pop edi
000052B0  5F                pop edi
000052B1  6D                insd
000052B2  61                popa
000052B3  7873              js 0x5328
000052B5  697A655F68656C    imul edi,[edx+0x65],dword 0x6c65685f
000052BC  7065              jo 0x5323
000052BE  7249              jc 0x5309
000052C0  54                push esp
000052C1  5F                pop edi
000052C2  45                inc ebp
000052C3  45                inc ebp
000052C4  3576616C75        xor eax,0x756c6176
000052C9  6545              gs inc ebp
000052CB  6A45              push byte +0x45
000052CD  3474              xor al,0x74
000052CF  7970              jns 0x5341
000052D1  6545              gs inc ebp
000052D3  52                push edx
000052D4  53                push ebx
000052D5  365F              ss pop edi
000052D7  005F5A            add [edi+0x5a],bl
000052DA  4E                dec esi
000052DB  53                push ebx
000052DC  7431              jz 0x530f
000052DE  325F56            xor bl,[edi+0x56]
000052E1  6563746F72        arpl [gs:edi+ebp*2+0x72],si
000052E6  5F                pop edi
000052E7  626173            bound esp,[ecx+0x73]
000052EA  6549              gs dec ecx
000052EC  69536149694545    imul edx,[ebx+0x61],dword 0x45456949
000052F3  3131              xor [ecx],esi
000052F5  5F                pop edi
000052F6  4D                dec ebp
000052F7  5F                pop edi
000052F8  61                popa
000052F9  6C                insb
000052FA  6C                insb
000052FB  6F                outsd
000052FC  636174            arpl [ecx+0x74],sp
000052FF  6545              gs inc ebp
00005301  6A00              push byte +0x0
00005303  5F                pop edi
00005304  66705F            o16 jo 0x5366
00005307  6877005F5A        push dword 0x5a5f0077
0000530C  646C              fs insb
0000530E  50                push eax
0000530F  7640              jna 0x5351
00005311  40                inc eax
00005312  47                inc edi
00005313  4C                dec esp
00005314  49                dec ecx
00005315  42                inc edx
00005316  43                inc ebx
00005317  58                pop eax
00005318  58                pop eax
00005319  5F                pop edi
0000531A  332E              xor ebp,[esi]
0000531C  3400              xor al,0x0
0000531E  5F                pop edi
0000531F  5A                pop edx
00005320  4E                dec esi
00005321  395F5F            cmp [edi+0x5f],ebx
00005324  676E              a16 outsb
00005326  755F              jnz 0x5387
00005328  637878            arpl [eax+0x78],di
0000532B  3133              xor [ebx],esi
0000532D  6E                outsb
0000532E  65775F            gs ja 0x5390
00005331  61                popa
00005332  6C                insb
00005333  6C                insb
00005334  6F                outsd
00005335  636174            arpl [ecx+0x74],sp
00005338  6F                outsd
00005339  7249              jc 0x5384
0000533B  69454431457600    imul eax,[ebp+0x44],dword 0x764531
00005342  5F                pop edi
00005343  5A                pop edx
00005344  53                push ebx
00005345  7434              jz 0x537b
00005347  6D                insd
00005348  6F                outsd
00005349  7665              jna 0x53b0
0000534B  49                dec ecx
0000534C  52                push edx
0000534D  53                push ebx
0000534E  7436              jz 0x5386
00005350  7665              jna 0x53b7
00005352  63746F72          arpl [edi+ebp*2+0x72],si
00005356  49                dec ecx
00005357  69536149694545    imul edx,[ebx+0x61],dword 0x45456949
0000535E  45                inc ebp
0000535F  4F                dec edi
00005360  4E                dec esi
00005361  53                push ebx
00005362  7431              jz 0x5395
00005364  367265            ss jc 0x53cc
00005367  6D                insd
00005368  6F                outsd
00005369  7665              jna 0x53d0
0000536B  5F                pop edi
0000536C  7265              jc 0x53d3
0000536E  66657265          gs o16 jc 0x53d7
00005372  6E                outsb
00005373  636549            arpl [ebp+0x49],sp
00005376  54                push esp
00005377  5F                pop edi
00005378  45                inc ebp
00005379  3474              xor al,0x74
0000537B  7970              jns 0x53ed
0000537D  6545              gs inc ebp
0000537F  4F                dec edi
00005380  53                push ebx
00005381  355F005F5A        xor eax,0x5a5f005f
00005386  4E                dec esi
00005387  53                push ebx
00005388  61                popa
00005389  49                dec ecx
0000538A  6945433145524B    imul eax,[ebp+0x43],dword 0x4b524531
00005391  53                push ebx
00005392  5F                pop edi
00005393  005F5A            add [edi+0x5a],bl
00005396  4E                dec esi
00005397  53                push ebx
00005398  7436              jz 0x53d0
0000539A  7665              jna 0x5401
0000539C  63746F72          arpl [edi+ebp*2+0x72],si
000053A0  49                dec ecx
000053A1  69536149694545    imul edx,[ebx+0x61],dword 0x45456949
000053A8  33656E            xor esp,[ebp+0x6e]
000053AB  6445              fs inc ebp
000053AD  7600              jna 0x53af
000053AF  5F                pop edi
000053B0  5A                pop edx
000053B1  4E                dec esi
000053B2  53                push ebx
000053B3  7431              jz 0x53e6
000053B5  3661              ss popa
000053B7  6C                insb
000053B8  6C                insb
000053B9  6F                outsd
000053BA  636174            arpl [ecx+0x74],sp
000053BD  6F                outsd
000053BE  725F              jc 0x541f
000053C0  7472              jz 0x5434
000053C2  61                popa
000053C3  6974734953614969  imul esi,[ebx+esi*2+0x49],dword 0x69496153
000053CB  45                inc ebp
000053CC  45                inc ebp
000053CD  3130              xor [eax],esi
000053CF  5F                pop edi
000053D0  53                push ebx
000053D1  5F                pop edi
000053D2  64657374          gs jnc 0x544a
000053D6  726F              jc 0x5447
000053D8  7949              jns 0x5423
000053DA  6945454E537439    imul eax,[ebp+0x45],dword 0x3974534e
000053E1  656E              gs outsb
000053E3  61                popa
000053E4  626C655F          bound ebp,[ebp+0x5f]
000053E8  6966495873724E    imul esp,[esi+0x49],dword 0x4e727358
000053EF  53                push ebx
000053F0  315F31            xor [edi+0x31],ebx
000053F3  365F              ss pop edi
000053F5  5F                pop edi
000053F6  64657374          gs jnc 0x546e
000053FA  726F              jc 0x546b
000053FC  795F              jns 0x545d
000053FE  68656C7065        push dword 0x65706c65
00005403  7249              jc 0x544e
00005405  54                push esp
00005406  5F                pop edi
00005407  45                inc ebp
00005408  45                inc ebp
00005409  3576616C75        xor eax,0x756c6176
0000540E  6545              gs inc ebp
00005410  7645              jna 0x5457
00005412  3474              xor al,0x74
00005414  7970              jns 0x5486
00005416  6545              gs inc ebp
00005418  52                push edx
00005419  53                push ebx
0000541A  305F50            xor [edi+0x50],bl
0000541D  53                push ebx
0000541E  355F005F5A        xor eax,0x5a5f005f
00005423  4E                dec esi
00005424  53                push ebx
00005425  61                popa
00005426  49                dec ecx
00005427  69454332457600    imul eax,[ebp+0x43],dword 0x764532
0000542E  5F                pop edi
0000542F  5A                pop edx
00005430  4E                dec esi
00005431  4B                dec ebx
00005432  53                push ebx
00005433  7431              jz 0x5466
00005435  3470              xor al,0x70
00005437  7269              jc 0x54a2
00005439  6F                outsd
0000543A  7269              jc 0x54a5
0000543C  7479              jz 0x54b7
0000543E  5F                pop edi
0000543F  7175              jno 0x54b6
00005441  657565            gs jnz 0x54a9
00005444  49                dec ecx
00005445  69537436766563    imul edx,[ebx+0x74],dword 0x63657636
0000544C  746F              jz 0x54bd
0000544E  7249              jc 0x5499
00005450  69536149694545    imul edx,[ebx+0x61],dword 0x45456949
00005457  53                push ebx
00005458  7434              jz 0x548e
0000545A  6C                insb
0000545B  657373            gs jnc 0x54d1
0000545E  49                dec ecx
0000545F  69454533746F70    imul eax,[ebp+0x45],dword 0x706f7433
00005466  45                inc ebp
00005467  7600              jna 0x5469
00005469  5F                pop edi
0000546A  5F                pop edi
0000546B  637861            arpl [eax+0x61],di
0000546E  5F                pop edi
0000546F  7265              jc 0x54d6
00005471  7468              jz 0x54db
00005473  726F              jc 0x54e4
00005475  7740              ja 0x54b7
00005477  40                inc eax
00005478  43                inc ebx
00005479  58                pop eax
0000547A  58                pop eax
0000547B  41                inc ecx
0000547C  42                inc edx
0000547D  49                dec ecx
0000547E  5F                pop edi
0000547F  312E              xor [esi],ebp
00005481  3300              xor eax,[eax]
00005483  5F                pop edi
00005484  5A                pop edx
00005485  4E                dec esi
00005486  53                push ebx
00005487  7438              jz 0x54c1
00005489  696F735F626173    imul ebp,[edi+0x73],dword 0x7361625f
00005490  653449            gs xor al,0x49
00005493  6E                outsb
00005494  6974433145764040  imul esi,[ebx+eax*2+0x31],dword 0x40407645
0000549C  47                inc edi
0000549D  4C                dec esp
0000549E  49                dec ecx
0000549F  42                inc edx
000054A0  43                inc ebx
000054A1  58                pop eax
000054A2  58                pop eax
000054A3  5F                pop edi
000054A4  332E              xor ebp,[esi]
000054A6  3400              xor al,0x0
000054A8  5F                pop edi
000054A9  5A                pop edx
000054AA  4E                dec esi
000054AB  4B                dec ebx
000054AC  395F5F            cmp [edi+0x5f],ebx
000054AF  676E              a16 outsb
000054B1  755F              jnz 0x5512
000054B3  637878            arpl [eax+0x78],di
000054B6  3137              xor [edi],esi
000054B8  5F                pop edi
000054B9  5F                pop edi
000054BA  6E                outsb
000054BB  6F                outsd
000054BC  726D              jc 0x552b
000054BE  61                popa
000054BF  6C                insb
000054C0  5F                pop edi
000054C1  6974657261746F72  imul esi,[ebp+0x72],dword 0x726f7461
000054C9  49                dec ecx
000054CA  50                push eax
000054CB  69537436766563    imul edx,[ebx+0x74],dword 0x63657636
000054D2  746F              jz 0x5543
000054D4  7249              jc 0x551f
000054D6  69536149694545    imul edx,[ebx+0x61],dword 0x45456949
000054DD  45                inc ebp
000054DE  3462              xor al,0x62
000054E0  61                popa
000054E1  7365              jnc 0x5548
000054E3  45                inc ebp
000054E4  7600              jna 0x54e6
000054E6  5F                pop edi
000054E7  5A                pop edx
000054E8  4E                dec esi
000054E9  53                push ebx
000054EA  7431              jz 0x551d
000054EC  3661              ss popa
000054EE  6C                insb
000054EF  6C                insb
000054F0  6F                outsd
000054F1  636174            arpl [ecx+0x74],sp
000054F4  6F                outsd
000054F5  725F              jc 0x5556
000054F7  7472              jz 0x556b
000054F9  61                popa
000054FA  6974734953614969  imul esi,[ebx+esi*2+0x49],dword 0x69496153
00005502  45                inc ebp
00005503  45                inc ebp
00005504  39636F            cmp [ebx+0x6f],esp
00005507  6E                outsb
00005508  7374              jnc 0x557e
0000550A  7275              jc 0x5581
0000550C  63744969          arpl [ecx+ecx*2+0x69],si
00005510  49                dec ecx
00005511  69454545445463    imul eax,[ebp+0x45],dword 0x63544445
00005518  6C                insb
00005519  3132              xor [edx],esi
0000551B  5F                pop edi
0000551C  53                push ebx
0000551D  5F                pop edi
0000551E  636F6E            arpl [edi+0x6e],bp
00005521  7374              jnc 0x5597
00005523  7275              jc 0x559a
00005525  63746670          arpl [esi+0x70],si
00005529  5F                pop edi
0000552A  667030            o16 jo 0x555d
0000552D  5F                pop edi
0000552E  7370              jnc 0x55a0
00005530  636C3766          arpl [edi+esi+0x66],bp
00005534  6F                outsd
00005535  7277              jc 0x55ae
00005537  61                popa
00005538  7264              jc 0x559e
0000553A  49                dec ecx
0000553B  54                push esp
0000553C  305F45            xor [edi+0x45],bl
0000553F  667031            o16 jo 0x5573
00005542  5F                pop edi
00005543  45                inc ebp
00005544  45                inc ebp
00005545  45                inc ebp
00005546  52                push edx
00005547  53                push ebx
00005548  305F50            xor [edi+0x50],bl
0000554B  54                push esp
0000554C  5F                pop edi
0000554D  44                inc esp
0000554E  704F              jo 0x559f
00005550  53                push ebx
00005551  335F00            xor ebx,[edi+0x0]
00005554  5F                pop edi
00005555  5A                pop edx
00005556  4E                dec esi
00005557  53                push ebx
00005558  7431              jz 0x558b
0000555A  3470              xor al,0x70
0000555C  7269              jc 0x55c7
0000555E  6F                outsd
0000555F  7269              jc 0x55ca
00005561  7479              jz 0x55dc
00005563  5F                pop edi
00005564  7175              jno 0x55db
00005566  657565            gs jnz 0x55ce
00005569  49                dec ecx
0000556A  69537436766563    imul edx,[ebx+0x74],dword 0x63657636
00005571  746F              jz 0x55e2
00005573  7249              jc 0x55be
00005575  69536149694545    imul edx,[ebx+0x61],dword 0x45456949
0000557C  53                push ebx
0000557D  7434              jz 0x55b3
0000557F  6C                insb
00005580  657373            gs jnc 0x55f6
00005583  49                dec ecx
00005584  69454534707573    imul eax,[ebp+0x45],dword 0x73757034
0000558B  68454F6900        push dword 0x694f45
00005590  5F                pop edi
00005591  5A                pop edx
00005592  4E                dec esi
00005593  53                push ebx
00005594  7431              jz 0x55c7
00005596  305F49            xor [edi+0x49],bl
00005599  7465              jz 0x5600
0000559B  725F              jc 0x55fc
0000559D  626173            bound esp,[ecx+0x73]
000055A0  6549              gs dec ecx
000055A2  53                push ebx
000055A3  7431              jz 0x55d6
000055A5  336D6F            xor ebp,[ebp+0x6f]
000055A8  7665              jna 0x560f
000055AA  5F                pop edi
000055AB  6974657261746F72  imul esi,[ebp+0x72],dword 0x726f7461
000055B3  49                dec ecx
000055B4  50                push eax
000055B5  69454C62314545    imul eax,[ebp+0x4c],dword 0x45453162
000055BC  37                aaa
000055BD  5F                pop edi
000055BE  53                push ebx
000055BF  5F                pop edi
000055C0  626173            bound esp,[ecx+0x73]
000055C3  6545              gs inc ebp
000055C5  53                push ebx
000055C6  325F00            xor bl,[edi+0x0]
000055C9  5F                pop edi
000055CA  5A                pop edx
000055CB  53                push ebx
000055CC  7433              jz 0x5601
000055CE  325F5F            xor bl,[edi+0x5f]
000055D1  6D                insd
000055D2  61                popa
000055D3  6B655F6D          imul esp,[ebp+0x5f],byte +0x6d
000055D7  6F                outsd
000055D8  7665              jna 0x563f
000055DA  5F                pop edi
000055DB  69665F6E6F6578    imul esp,[esi+0x5f],dword 0x78656f6e
000055E2  636570            arpl [ebp+0x70],sp
000055E5  745F              jz 0x5646
000055E7  6974657261746F72  imul esi,[ebp+0x72],dword 0x726f7461
000055EF  49                dec ecx
000055F0  50                push eax
000055F1  69537431336D6F    imul edx,[ebx+0x74],dword 0x6f6d3331
000055F8  7665              jna 0x565f
000055FA  5F                pop edi
000055FB  6974657261746F72  imul esi,[ebp+0x72],dword 0x726f7461
00005603  49                dec ecx
00005604  53                push ebx
00005605  305F45            xor [edi+0x45],bl
00005608  45                inc ebp
00005609  54                push esp
0000560A  305F54            xor [edi+0x54],bl
0000560D  5F                pop edi
0000560E  005F5A            add [edi+0x5a],bl
00005611  4E                dec esi
00005612  53                push ebx
00005613  7431              jz 0x5646
00005615  325F56            xor bl,[edi+0x56]
00005618  6563746F72        arpl [gs:edi+ebp*2+0x72],si
0000561D  5F                pop edi
0000561E  626173            bound esp,[ecx+0x73]
00005621  6549              gs dec ecx
00005623  69536149694545    imul edx,[ebx+0x61],dword 0x45456949
0000562A  3132              xor [edx],esi
0000562C  5F                pop edi
0000562D  56                push esi
0000562E  6563746F72        arpl [gs:edi+ebp*2+0x72],si
00005633  5F                pop edi
00005634  696D706C433145    imul ebp,[ebp+0x70],dword 0x4531436c
0000563B  4F                dec edi
0000563C  53                push ebx
0000563D  305F00            xor [edi+0x0],bl
00005640  5F                pop edi
00005641  5A                pop edx
00005642  4E                dec esi
00005643  395F5F            cmp [edi+0x5f],ebx
00005646  676E              a16 outsb
00005648  755F              jnz 0x56a9
0000564A  637878            arpl [eax+0x78],di
0000564D  3133              xor [ebx],esi
0000564F  6E                outsb
00005650  65775F            gs ja 0x56b2
00005653  61                popa
00005654  6C                insb
00005655  6C                insb
00005656  6F                outsd
00005657  636174            arpl [ecx+0x74],sp
0000565A  6F                outsd
0000565B  7249              jc 0x56a6
0000565D  69454432457600    imul eax,[ebp+0x44],dword 0x764532
00005664  5F                pop edi
00005665  5F                pop edi
00005666  6C                insb
00005667  6962635F737461    imul esp,[edx+0x63],dword 0x6174735f
0000566E  7274              jc 0x56e4
00005670  5F                pop edi
00005671  6D                insd
00005672  61                popa
00005673  696E4040474C49    imul ebp,[esi+0x40],dword 0x494c4740
0000567A  42                inc edx
0000567B  43                inc ebx
0000567C  5F                pop edi
0000567D  322E              xor ch,[esi]
0000567F  3000              xor [eax],al
00005681  5F                pop edi
00005682  5A                pop edx
00005683  53                push ebx
00005684  7438              jz 0x56be
00005686  5F                pop edi
00005687  44                inc esp
00005688  657374            gs jnc 0x56ff
0000568B  726F              jc 0x56fc
0000568D  7949              jns 0x56d8
0000568F  50                push eax
00005690  69694576545F53    imul ebp,[ecx+0x45],dword 0x535f5476
00005697  315F52            xor [edi+0x52],ebx
0000569A  53                push ebx
0000569B  61                popa
0000569C  49                dec ecx
0000569D  54                push esp
0000569E  305F45            xor [edi+0x45],bl
000056A1  005F5A            add [edi+0x5a],bl
000056A4  53                push ebx
000056A5  7431              jz 0x56d8
000056A7  345F              xor al,0x5f
000056A9  5F                pop edi
000056AA  636F70            arpl [edi+0x70],bp
000056AD  795F              jns 0x570e
000056AF  6D                insd
000056B0  6F                outsd
000056B1  7665              jna 0x5718
000056B3  5F                pop edi
000056B4  61                popa
000056B5  32494C            xor cl,[ecx+0x4c]
000056B8  6231              bound esi,[ecx]
000056BA  45                inc ebp
000056BB  50                push eax
000056BC  6953305F455431    imul edx,[ebx+0x30],dword 0x3154455f
000056C3  5F                pop edi
000056C4  54                push esp
000056C5  305F53            xor [edi+0x53],bl
000056C8  325F53            xor bl,[edi+0x53]
000056CB  315F00            xor [edi+0x0],ebx
000056CE  5F                pop edi
000056CF  5A                pop edx
000056D0  4E                dec esi
000056D1  53                push ebx
000056D2  7431              jz 0x5705
000056D4  325F56            xor bl,[edi+0x56]
000056D7  6563746F72        arpl [gs:edi+ebp*2+0x72],si
000056DC  5F                pop edi
000056DD  626173            bound esp,[ecx+0x73]
000056E0  6549              gs dec ecx
000056E2  69536149694545    imul edx,[ebx+0x61],dword 0x45456949
000056E9  3132              xor [edx],esi
000056EB  5F                pop edi
000056EC  56                push esi
000056ED  6563746F72        arpl [gs:edi+ebp*2+0x72],si
000056F2  5F                pop edi
000056F3  696D706C433245    imul ebp,[ebp+0x70],dword 0x4532436c
000056FA  7600              jna 0x56fc
000056FC  5F                pop edi
000056FD  5A                pop edx
000056FE  4E                dec esi
000056FF  4B                dec ebx
00005700  53                push ebx
00005701  7436              jz 0x5739
00005703  7665              jna 0x576a
00005705  63746F72          arpl [edi+ebp*2+0x72],si
00005709  49                dec ecx
0000570A  69536149694545    imul edx,[ebx+0x61],dword 0x45456949
00005711  386D61            cmp [ebp+0x61],ch
00005714  785F              js 0x5775
00005716  7369              jnc 0x5781
00005718  7A65              jpe 0x577f
0000571A  45                inc ebp
0000571B  7600              jna 0x571d
0000571D  5F                pop edi
0000571E  5A                pop edx
0000571F  4E                dec esi
00005720  53                push ebx
00005721  7436              jz 0x5759
00005723  7665              jna 0x578a
00005725  63746F72          arpl [edi+ebp*2+0x72],si
00005729  49                dec ecx
0000572A  69536149694545    imul edx,[ebx+0x61],dword 0x45456949
00005731  44                inc esp
00005732  314576            xor [ebp+0x76],eax
00005735  005F5A            add [edi+0x5a],bl
00005738  4E                dec esi
00005739  395F5F            cmp [edi+0x5f],ebx
0000573C  676E              a16 outsb
0000573E  755F              jnz 0x579f
00005740  637878            arpl [eax+0x78],di
00005743  3133              xor [ebx],esi
00005745  6E                outsb
00005746  65775F            gs ja 0x57a8
00005749  61                popa
0000574A  6C                insb
0000574B  6C                insb
0000574C  6F                outsd
0000574D  636174            arpl [ecx+0x74],sp
00005750  6F                outsd
00005751  7249              jc 0x579c
00005753  69453130646561    imul eax,[ebp+0x31],dword 0x61656430
0000575A  6C                insb
0000575B  6C                insb
0000575C  6F                outsd
0000575D  636174            arpl [ecx+0x74],sp
00005760  6545              gs inc ebp
00005762  50                push eax
00005763  696A005F5A4E53    imul ebp,[edx+0x0],dword 0x534e5a5f
0000576A  7438              jz 0x57a4
0000576C  696F735F626173    imul ebp,[edi+0x73],dword 0x7361625f
00005773  653449            gs xor al,0x49
00005776  6E                outsb
00005777  6974443145764040  imul esi,[esp+eax*2+0x31],dword 0x40407645
0000577F  47                inc edi
00005780  4C                dec esp
00005781  49                dec ecx
00005782  42                inc edx
00005783  43                inc ebx
00005784  58                pop eax
00005785  58                pop eax
00005786  5F                pop edi
00005787  332E              xor ebp,[esi]
00005789  3400              xor al,0x0
0000578B  5F                pop edi
0000578C  5A                pop edx
0000578D  4E                dec esi
0000578E  53                push ebx
0000578F  7431              jz 0x57c2
00005791  325F56            xor bl,[edi+0x56]
00005794  6563746F72        arpl [gs:edi+ebp*2+0x72],si
00005799  5F                pop edi
0000579A  626173            bound esp,[ecx+0x73]
0000579D  6549              gs dec ecx
0000579F  69536149694545    imul edx,[ebx+0x61],dword 0x45456949
000057A6  3132              xor [edx],esi
000057A8  5F                pop edi
000057A9  56                push esi
000057AA  6563746F72        arpl [gs:edi+ebp*2+0x72],si
000057AF  5F                pop edi
000057B0  696D706C443245    imul ebp,[ebp+0x70],dword 0x4532446c
000057B7  7600              jna 0x57b9
000057B9  5F                pop edi
000057BA  49                dec ecx
000057BB  54                push esp
000057BC  4D                dec ebp
000057BD  5F                pop edi
000057BE  64657265          gs jc 0x5827
000057C2  676973746572544D  imul esi,[bp+di+0x74],dword 0x4d547265
000057CA  43                inc ebx
000057CB  6C                insb
000057CC  6F                outsd
000057CD  6E                outsb
000057CE  6554              gs push esp
000057D0  61                popa
000057D1  626C6500          bound ebp,[ebp+0x0]
000057D5  5F                pop edi
000057D6  5A                pop edx
000057D7  4E                dec esi
000057D8  53                push ebx
000057D9  7436              jz 0x5811
000057DB  7665              jna 0x5842
000057DD  63746F72          arpl [edi+ebp*2+0x72],si
000057E1  49                dec ecx
000057E2  69536149694545    imul edx,[ebx+0x61],dword 0x45456949
000057E9  3139              xor [ecx],edi
000057EB  5F                pop edi
000057EC  4D                dec ebp
000057ED  5F                pop edi
000057EE  656D              gs insd
000057F0  706C              jo 0x585e
000057F2  61                popa
000057F3  63655F            arpl [ebp+0x5f],sp
000057F6  626163            bound esp,[ecx+0x63]
000057F9  6B5F6175          imul ebx,[edi+0x61],byte +0x75
000057FD  7849              js 0x5848
000057FF  4A                dec edx
00005800  52                push edx
00005801  4B                dec ebx
00005802  69454545764470    imul eax,[ebp+0x45],dword 0x70447645
00005809  4F                dec edi
0000580A  54                push esp
0000580B  5F                pop edi
0000580C  005F5A            add [edi+0x5a],bl
0000580F  4E                dec esi
00005810  53                push ebx
00005811  7431              jz 0x5844
00005813  325F56            xor bl,[edi+0x56]
00005816  6563746F72        arpl [gs:edi+ebp*2+0x72],si
0000581B  5F                pop edi
0000581C  626173            bound esp,[ecx+0x73]
0000581F  6549              gs dec ecx
00005821  69536149694545    imul edx,[ebx+0x61],dword 0x45456949
00005828  43                inc ebx
00005829  314576            xor [ebp+0x76],eax
0000582C  005F5A            add [edi+0x5a],bl
0000582F  4E                dec esi
00005830  53                push ebx
00005831  7431              jz 0x5864
00005833  325F56            xor bl,[edi+0x56]
00005836  6563746F72        arpl [gs:edi+ebp*2+0x72],si
0000583B  5F                pop edi
0000583C  626173            bound esp,[ecx+0x73]
0000583F  6549              gs dec ecx
00005841  69536149694545    imul edx,[ebx+0x61],dword 0x45456949
00005848  3132              xor [edx],esi
0000584A  5F                pop edi
0000584B  56                push esi
0000584C  6563746F72        arpl [gs:edi+ebp*2+0x72],si
00005851  5F                pop edi
00005852  696D706C31325F    imul ebp,[ebp+0x70],dword 0x5f32316c
00005859  4D                dec ebp
0000585A  5F                pop edi
0000585B  7377              jnc 0x58d4
0000585D  61                popa
0000585E  705F              jo 0x58bf
00005860  6461              fs popa
00005862  7461              jz 0x58c5
00005864  45                inc ebp
00005865  52                push edx
00005866  53                push ebx
00005867  325F00            xor bl,[edi+0x0]
0000586A  5F                pop edi
0000586B  49                dec ecx
0000586C  4F                dec edi
0000586D  5F                pop edi
0000586E  7374              jnc 0x58e4
00005870  64696E5F75736564  imul ebp,[fs:esi+0x5f],dword 0x64657375
00005878  005F5A            add [edi+0x5a],bl
0000587B  4E                dec esi
0000587C  53                push ebx
0000587D  7431              jz 0x58b0
0000587F  325F56            xor bl,[edi+0x56]
00005882  6563746F72        arpl [gs:edi+ebp*2+0x72],si
00005887  5F                pop edi
00005888  626173            bound esp,[ecx+0x73]
0000588B  6549              gs dec ecx
0000588D  69536149694545    imul edx,[ebx+0x61],dword 0x45456949
00005894  3139              xor [ecx],edi
00005896  5F                pop edi
00005897  4D                dec ebp
00005898  5F                pop edi
00005899  6765745F          gs jz 0x58fc
0000589D  54                push esp
0000589E  705F              jo 0x58ff
000058A0  61                popa
000058A1  6C                insb
000058A2  6C                insb
000058A3  6F                outsd
000058A4  636174            arpl [ecx+0x74],sp
000058A7  6F                outsd
000058A8  7245              jc 0x58ef
000058AA  7600              jna 0x58ac
000058AC  5F                pop edi
000058AD  5A                pop edx
000058AE  6E                outsb
000058AF  776A              ja 0x591b
000058B1  50                push eax
000058B2  7600              jna 0x58b4
000058B4  5F                pop edi
000058B5  5A                pop edx
000058B6  4E                dec esi
000058B7  53                push ebx
000058B8  7431              jz 0x58eb
000058BA  3661              ss popa
000058BC  6C                insb
000058BD  6C                insb
000058BE  6F                outsd
000058BF  636174            arpl [ecx+0x74],sp
000058C2  6F                outsd
000058C3  725F              jc 0x5924
000058C5  7472              jz 0x5939
000058C7  61                popa
000058C8  6974734953614969  imul esi,[ebx+esi*2+0x49],dword 0x69496153
000058D0  45                inc ebp
000058D1  45                inc ebp
000058D2  39636F            cmp [ebx+0x6f],esp
000058D5  6E                outsb
000058D6  7374              jnc 0x594c
000058D8  7275              jc 0x594f
000058DA  63744969          arpl [ecx+ecx*2+0x69],si
000058DE  4A                dec edx
000058DF  52                push edx
000058E0  4B                dec ebx
000058E1  69454545445463    imul eax,[ebp+0x45],dword 0x63544445
000058E8  6C                insb
000058E9  3132              xor [edx],esi
000058EB  5F                pop edi
000058EC  53                push ebx
000058ED  5F                pop edi
000058EE  636F6E            arpl [edi+0x6e],bp
000058F1  7374              jnc 0x5967
000058F3  7275              jc 0x596a
000058F5  63746670          arpl [esi+0x70],si
000058F9  5F                pop edi
000058FA  667030            o16 jo 0x592d
000058FD  5F                pop edi
000058FE  7370              jnc 0x5970
00005900  636C3766          arpl [edi+esi+0x66],bp
00005904  6F                outsd
00005905  7277              jc 0x597e
00005907  61                popa
00005908  7264              jc 0x596e
0000590A  49                dec ecx
0000590B  54                push esp
0000590C  305F45            xor [edi+0x45],bl
0000590F  667031            o16 jo 0x5943
00005912  5F                pop edi
00005913  45                inc ebp
00005914  45                inc ebp
00005915  45                inc ebp
00005916  52                push edx
00005917  53                push ebx
00005918  305F50            xor [edi+0x50],bl
0000591B  54                push esp
0000591C  5F                pop edi
0000591D  44                inc esp
0000591E  704F              jo 0x596f
00005920  53                push ebx
00005921  355F005F5A        xor eax,0x5a5f005f
00005926  4E                dec esi
00005927  53                push ebx
00005928  7431              jz 0x595b
0000592A  3661              ss popa
0000592C  6C                insb
0000592D  6C                insb
0000592E  6F                outsd
0000592F  636174            arpl [ecx+0x74],sp
00005932  6F                outsd
00005933  725F              jc 0x5994
00005935  7472              jz 0x59a9
00005937  61                popa
00005938  6974734953614969  imul esi,[ebx+esi*2+0x49],dword 0x69496153
00005940  45                inc ebp
00005941  45                inc ebp
00005942  3132              xor [edx],esi
00005944  5F                pop edi
00005945  53                push ebx
00005946  5F                pop edi
00005947  636F6E            arpl [edi+0x6e],bp
0000594A  7374              jnc 0x59c0
0000594C  7275              jc 0x59c3
0000594E  63744969          arpl [ecx+ecx*2+0x69],si
00005952  4A                dec edx
00005953  694545454E5374    imul eax,[ebp+0x45],dword 0x74534e45
0000595A  39656E            cmp [ebp+0x6e],esp
0000595D  61                popa
0000595E  626C655F          bound ebp,[ebp+0x5f]
00005962  6966495873724E    imul esp,[esi+0x49],dword 0x4e727358
00005969  53                push ebx
0000596A  315F31            xor [edi+0x31],ebx
0000596D  385F5F            cmp [edi+0x5f],bl
00005970  636F6E            arpl [edi+0x6e],bp
00005973  7374              jnc 0x59e9
00005975  7275              jc 0x59ec
00005977  63745F68          arpl [edi+ebx*2+0x68],si
0000597B  656C              gs insb
0000597D  7065              jo 0x59e4
0000597F  7249              jc 0x59ca
00005981  54                push esp
00005982  5F                pop edi
00005983  4A                dec edx
00005984  44                inc esp
00005985  7054              jo 0x59db
00005987  305F45            xor [edi+0x45],bl
0000598A  45                inc ebp
0000598B  45                inc ebp
0000598C  3576616C75        xor eax,0x756c6176
00005991  6545              gs inc ebp
00005993  7645              jna 0x59da
00005995  3474              xor al,0x74
00005997  7970              jns 0x5a09
00005999  6545              gs inc ebp
0000599B  52                push edx
0000599C  53                push ebx
0000599D  305F50            xor [edi+0x50],bl
000059A0  53                push ebx
000059A1  355F44704F        xor eax,0x4f70445f
000059A6  53                push ebx
000059A7  365F              ss pop edi
000059A9  005F5A            add [edi+0x5a],bl
000059AC  4E                dec esi
000059AD  395F5F            cmp [edi+0x5f],ebx
000059B0  676E              a16 outsb
000059B2  755F              jnz 0x5a13
000059B4  637878            arpl [eax+0x78],di
000059B7  3137              xor [edi],esi
000059B9  5F                pop edi
000059BA  5F                pop edi
000059BB  6E                outsb
000059BC  6F                outsd
000059BD  726D              jc 0x5a2c
000059BF  61                popa
000059C0  6C                insb
000059C1  5F                pop edi
000059C2  6974657261746F72  imul esi,[ebp+0x72],dword 0x726f7461
000059CA  49                dec ecx
000059CB  50                push eax
000059CC  4B                dec ebx
000059CD  69537436766563    imul edx,[ebx+0x74],dword 0x63657636
000059D4  746F              jz 0x5a45
000059D6  7249              jc 0x5a21
000059D8  69536149694545    imul edx,[ebx+0x61],dword 0x45456949
000059DF  45                inc ebp
000059E0  43                inc ebx
000059E1  324552            xor al,[ebp+0x52]
000059E4  4B                dec ebx
000059E5  53                push ebx
000059E6  325F00            xor bl,[edi+0x0]
000059E9  5F                pop edi
000059EA  5A                pop edx
000059EB  4E                dec esi
000059EC  53                push ebx
000059ED  7431              jz 0x5a20
000059EF  3470              xor al,0x70
000059F1  7269              jc 0x5a5c
000059F3  6F                outsd
000059F4  7269              jc 0x5a5f
000059F6  7479              jz 0x5a71
000059F8  5F                pop edi
000059F9  7175              jno 0x5a70
000059FB  657565            gs jnz 0x5a63
000059FE  49                dec ecx
000059FF  69537436766563    imul edx,[ebx+0x74],dword 0x63657636
00005A06  746F              jz 0x5a77
00005A08  7249              jc 0x5a53
00005A0A  69536149694545    imul edx,[ebx+0x61],dword 0x45456949
00005A11  53                push ebx
00005A12  7434              jz 0x5a48
00005A14  6C                insb
00005A15  657373            gs jnc 0x5a8b
00005A18  49                dec ecx
00005A19  69454544324576    imul eax,[ebp+0x45],dword 0x76453244
00005A20  007363            add [ebx+0x63],dh
00005A23  61                popa
00005A24  6E                outsb
00005A25  6640              inc ax
00005A27  40                inc eax
00005A28  47                inc edi
00005A29  4C                dec esp
00005A2A  49                dec ecx
00005A2B  42                inc edx
00005A2C  43                inc ebx
00005A2D  5F                pop edi
00005A2E  322E              xor ch,[esi]
00005A30  3000              xor [eax],al
00005A32  5F                pop edi
00005A33  5A                pop edx
00005A34  53                push ebx
00005A35  7431              jz 0x5a68
00005A37  325F5F            xor bl,[edi+0x5f]
00005A3A  6D                insd
00005A3B  697465725F626173  imul esi,[ebp+0x72],dword 0x7361625f
00005A43  6549              gs dec ecx
00005A45  53                push ebx
00005A46  7431              jz 0x5a79
00005A48  336D6F            xor ebp,[ebp+0x6f]
00005A4B  7665              jna 0x5ab2
00005A4D  5F                pop edi
00005A4E  6974657261746F72  imul esi,[ebp+0x72],dword 0x726f7461
00005A56  49                dec ecx
00005A57  50                push eax
00005A58  6945454E537431    imul eax,[ebp+0x45],dword 0x3174534e
00005A5F  315F4D            xor [edi+0x4d],ebx
00005A62  697465725F626173  imul esi,[ebp+0x72],dword 0x7361625f
00005A6A  6549              gs dec ecx
00005A6C  54                push esp
00005A6D  5F                pop edi
00005A6E  45                inc ebp
00005A6F  3133              xor [ebx],esi
00005A71  6974657261746F72  imul esi,[ebp+0x72],dword 0x726f7461
00005A79  5F                pop edi
00005A7A  7479              jz 0x5af5
00005A7C  7065              jo 0x5ae3
00005A7E  45                inc ebp
00005A7F  53                push ebx
00005A80  345F              xor al,0x5f
00005A82  005F5A            add [edi+0x5a],bl
00005A85  4E                dec esi
00005A86  395F5F            cmp [edi+0x5f],ebx
00005A89  676E              a16 outsb
00005A8B  755F              jnz 0x5aec
00005A8D  637878            arpl [eax+0x78],di
00005A90  3133              xor [ebx],esi
00005A92  6E                outsb
00005A93  65775F            gs ja 0x5af5
00005A96  61                popa
00005A97  6C                insb
00005A98  6C                insb
00005A99  6F                outsd
00005A9A  636174            arpl [ecx+0x74],sp
00005A9D  6F                outsd
00005A9E  7249              jc 0x5ae9
00005AA0  694539636F6E73    imul eax,[ebp+0x39],dword 0x736e6f63
00005AA7  7472              jz 0x5b1b
00005AA9  7563              jnz 0x5b0e
00005AAB  7449              jz 0x5af6
00005AAD  69496945454576    imul ecx,[ecx+0x69],dword 0x76454545
00005AB4  50                push eax
00005AB5  54                push esp
00005AB6  5F                pop edi
00005AB7  44                inc esp
00005AB8  704F              jo 0x5b09
00005ABA  54                push esp
00005ABB  305F00            xor [edi+0x0],bl
00005ABE  5F                pop edi
00005ABF  49                dec ecx
00005AC0  54                push esp
00005AC1  4D                dec ebp
00005AC2  5F                pop edi
00005AC3  7265              jc 0x5b2a
00005AC5  676973746572544D  imul esi,[bp+di+0x74],dword 0x4d547265
00005ACD  43                inc ebx
00005ACE  6C                insb
00005ACF  6F                outsd
00005AD0  6E                outsb
00005AD1  6554              gs push esp
00005AD3  61                popa
00005AD4  626C6500          bound ebp,[ebp+0x0]
00005AD8  5F                pop edi
00005AD9  5F                pop edi
00005ADA  6461              fs popa
00005ADC  7461              jz 0x5b3f
00005ADE  5F                pop edi
00005ADF  7374              jnc 0x5b55
00005AE1  61                popa
00005AE2  7274              jc 0x5b58
00005AE4  005F5A            add [edi+0x5a],bl
00005AE7  53                push ebx
00005AE8  7431              jz 0x5b1b
00005AEA  335F5F            xor ebx,[edi+0x5f]
00005AED  61                popa
00005AEE  646A75            fs push byte +0x75
00005AF1  7374              jnc 0x5b67
00005AF3  5F                pop edi
00005AF4  6865617049        push dword 0x49706165
00005AF9  4E                dec esi
00005AFA  395F5F            cmp [edi+0x5f],ebx
00005AFD  676E              a16 outsb
00005AFF  755F              jnz 0x5b60
00005B01  637878            arpl [eax+0x78],di
00005B04  3137              xor [edi],esi
00005B06  5F                pop edi
00005B07  5F                pop edi
00005B08  6E                outsb
00005B09  6F                outsd
00005B0A  726D              jc 0x5b79
00005B0C  61                popa
00005B0D  6C                insb
00005B0E  5F                pop edi
00005B0F  6974657261746F72  imul esi,[ebp+0x72],dword 0x726f7461
00005B17  49                dec ecx
00005B18  50                push eax
00005B19  69537436766563    imul edx,[ebx+0x74],dword 0x63657636
00005B20  746F              jz 0x5b91
00005B22  7249              jc 0x5b6d
00005B24  69536149694545    imul edx,[ebx+0x61],dword 0x45456949
00005B2B  45                inc ebp
00005B2C  45                inc ebp
00005B2D  69695374346C65    imul ebp,[ecx+0x53],dword 0x656c3474
00005B34  7373              jnc 0x5ba9
00005B36  49                dec ecx
00005B37  69454576545F54    imul eax,[ebp+0x45],dword 0x545f5476
00005B3E  305F53            xor [edi+0x53],bl
00005B41  41                inc ecx
00005B42  5F                pop edi
00005B43  54                push esp
00005B44  315F54            xor [edi+0x54],ebx
00005B47  325F00            xor bl,[edi+0x0]
00005B4A  5F                pop edi
00005B4B  5A                pop edx
00005B4C  4E                dec esi
00005B4D  53                push ebx
00005B4E  7431              jz 0x5b81
00005B50  3661              ss popa
00005B52  6C                insb
00005B53  6C                insb
00005B54  6F                outsd
00005B55  636174            arpl [ecx+0x74],sp
00005B58  6F                outsd
00005B59  725F              jc 0x5bba
00005B5B  7472              jz 0x5bcf
00005B5D  61                popa
00005B5E  6974734953614969  imul esi,[ebx+esi*2+0x49],dword 0x69496153
00005B66  45                inc ebp
00005B67  45                inc ebp
00005B68  3132              xor [edx],esi
00005B6A  5F                pop edi
00005B6B  53                push ebx
00005B6C  5F                pop edi
00005B6D  636F6E            arpl [edi+0x6e],bp
00005B70  7374              jnc 0x5be6
00005B72  7275              jc 0x5be9
00005B74  63744969          arpl [ecx+ecx*2+0x69],si
00005B78  49                dec ecx
00005B79  52                push edx
00005B7A  4B                dec ebx
00005B7B  694545454E5374    imul eax,[ebp+0x45],dword 0x74534e45
00005B82  39656E            cmp [ebp+0x6e],esp
00005B85  61                popa
00005B86  626C655F          bound ebp,[ebp+0x5f]
00005B8A  6966495873724E    imul esp,[esi+0x49],dword 0x4e727358
00005B91  53                push ebx
00005B92  315F31            xor [edi+0x31],ebx
00005B95  385F5F            cmp [edi+0x5f],bl
00005B98  636F6E            arpl [edi+0x6e],bp
00005B9B  7374              jnc 0x5c11
00005B9D  7275              jc 0x5c14
00005B9F  63745F68          arpl [edi+ebx*2+0x68],si
00005BA3  656C              gs insb
00005BA5  7065              jo 0x5c0c
00005BA7  7249              jc 0x5bf2
00005BA9  54                push esp
00005BAA  5F                pop edi
00005BAB  49                dec ecx
00005BAC  44                inc esp
00005BAD  7054              jo 0x5c03
00005BAF  305F45            xor [edi+0x45],bl
00005BB2  45                inc ebp
00005BB3  45                inc ebp
00005BB4  3576616C75        xor eax,0x756c6176
00005BB9  6545              gs inc ebp
00005BBB  7645              jna 0x5c02
00005BBD  3474              xor al,0x74
00005BBF  7970              jns 0x5c31
00005BC1  6545              gs inc ebp
00005BC3  52                push edx
00005BC4  53                push ebx
00005BC5  305F50            xor [edi+0x50],bl
00005BC8  53                push ebx
00005BC9  37                aaa
00005BCA  5F                pop edi
00005BCB  44                inc esp
00005BCC  704F              jo 0x5c1d
00005BCE  53                push ebx
00005BCF  385F00            cmp [edi+0x0],bl
00005BD2  5F                pop edi
00005BD3  5A                pop edx
00005BD4  4E                dec esi
00005BD5  53                push ebx
00005BD6  7431              jz 0x5c09
00005BD8  325F56            xor bl,[edi+0x56]
00005BDB  6563746F72        arpl [gs:edi+ebp*2+0x72],si
00005BE0  5F                pop edi
00005BE1  626173            bound esp,[ecx+0x73]
00005BE4  6549              gs dec ecx
00005BE6  69536149694545    imul edx,[ebx+0x61],dword 0x45456949
00005BED  43                inc ebx
00005BEE  32454F            xor al,[ebp+0x4f]
00005BF1  53                push ebx
00005BF2  315F00            xor [edi+0x0],ebx
00005BF5  5F                pop edi
00005BF6  5A                pop edx
00005BF7  4E                dec esi
00005BF8  53                push ebx
00005BF9  7431              jz 0x5c2c
00005BFB  3470              xor al,0x70
00005BFD  7269              jc 0x5c68
00005BFF  6F                outsd
00005C00  7269              jc 0x5c6b
00005C02  7479              jz 0x5c7d
00005C04  5F                pop edi
00005C05  7175              jno 0x5c7c
00005C07  657565            gs jnz 0x5c6f
00005C0A  49                dec ecx
00005C0B  69537436766563    imul edx,[ebx+0x74],dword 0x63657636
00005C12  746F              jz 0x5c83
00005C14  7249              jc 0x5c5f
00005C16  69536149694545    imul edx,[ebx+0x61],dword 0x45456949
00005C1D  53                push ebx
00005C1E  7434              jz 0x5c54
00005C20  6C                insb
00005C21  657373            gs jnc 0x5c97
00005C24  49                dec ecx
00005C25  69454544314576    imul eax,[ebp+0x45],dword 0x76453144
00005C2C  005F5A            add [edi+0x5a],bl
00005C2F  4E                dec esi
00005C30  53                push ebx
00005C31  7436              jz 0x5c69
00005C33  7665              jna 0x5c9a
00005C35  63746F72          arpl [edi+ebp*2+0x72],si
00005C39  49                dec ecx
00005C3A  69536149694545    imul edx,[ebx+0x61],dword 0x45456949
00005C41  43                inc ebx
00005C42  324576            xor al,[ebp+0x76]
00005C45  005F5A            add [edi+0x5a],bl
00005C48  4E                dec esi
00005C49  4B                dec ebx
00005C4A  53                push ebx
00005C4B  7434              jz 0x5c81
00005C4D  6C                insb
00005C4E  657373            gs jnc 0x5cc4
00005C51  49                dec ecx
00005C52  6945636C45524B    imul eax,[ebp+0x63],dword 0x4b52456c
00005C59  6953325F005F5A    imul edx,[ebx+0x32],dword 0x5a5f005f
00005C60  4E                dec esi
00005C61  53                push ebx
00005C62  7431              jz 0x5c95
00005C64  325F44            xor bl,[edi+0x44]
00005C67  657374            gs jnc 0x5cde
00005C6A  726F              jc 0x5cdb
00005C6C  795F              jns 0x5ccd
00005C6E  61                popa
00005C6F  7578              jnz 0x5ce9
00005C71  49                dec ecx
00005C72  4C                dec esp
00005C73  6231              bound esi,[ecx]
00005C75  45                inc ebp
00005C76  45                inc ebp
00005C77  395F5F            cmp [edi+0x5f],ebx
00005C7A  64657374          gs jnc 0x5cf2
00005C7E  726F              jc 0x5cef
00005C80  7949              jns 0x5ccb
00005C82  50                push eax
00005C83  69454576545F53    imul eax,[ebp+0x45],dword 0x535f5476
00005C8A  335F00            xor ebx,[edi+0x0]
00005C8D  5F                pop edi
00005C8E  5A                pop edx
00005C8F  4E                dec esi
00005C90  53                push ebx
00005C91  7431              jz 0x5cc4
00005C93  336D6F            xor ebp,[ebp+0x6f]
00005C96  7665              jna 0x5cfd
00005C98  5F                pop edi
00005C99  6974657261746F72  imul esi,[ebp+0x72],dword 0x726f7461
00005CA1  49                dec ecx
00005CA2  50                push eax
00005CA3  69454332455330    imul eax,[ebp+0x43],dword 0x30534532
00005CAA  5F                pop edi
00005CAB  005F5A            add [edi+0x5a],bl
00005CAE  4E                dec esi
00005CAF  53                push ebx
00005CB0  7431              jz 0x5ce3
00005CB2  325F56            xor bl,[edi+0x56]
00005CB5  6563746F72        arpl [gs:edi+ebp*2+0x72],si
00005CBA  5F                pop edi
00005CBB  626173            bound esp,[ecx+0x73]
00005CBE  6549              gs dec ecx
00005CC0  69536149694545    imul edx,[ebx+0x61],dword 0x45456949
00005CC7  44                inc esp
00005CC8  314576            xor [ebp+0x76],eax
00005CCB  005F5A            add [edi+0x5a],bl
00005CCE  4E                dec esi
00005CCF  395F5F            cmp [edi+0x5f],ebx
00005CD2  676E              a16 outsb
00005CD4  755F              jnz 0x5d35
00005CD6  637878            arpl [eax+0x78],di
00005CD9  3133              xor [ebx],esi
00005CDB  6E                outsb
00005CDC  65775F            gs ja 0x5d3e
00005CDF  61                popa
00005CE0  6C                insb
00005CE1  6C                insb
00005CE2  6F                outsd
00005CE3  636174            arpl [ecx+0x74],sp
00005CE6  6F                outsd
00005CE7  7249              jc 0x5d32
00005CE9  69454331457600    imul eax,[ebp+0x43],dword 0x764531
00005CF0  5F                pop edi
00005CF1  5A                pop edx
00005CF2  53                push ebx
00005CF3  7434              jz 0x5d29
00005CF5  6D                insd
00005CF6  6F                outsd
00005CF7  7665              jna 0x5d5e
00005CF9  49                dec ecx
00005CFA  52                push edx
00005CFB  50                push eax
00005CFC  69454F4E537431    imul eax,[ebp+0x4f],dword 0x3174534e
00005D03  367265            ss jc 0x5d6b
00005D06  6D                insd
00005D07  6F                outsd
00005D08  7665              jna 0x5d6f
00005D0A  5F                pop edi
00005D0B  7265              jc 0x5d72
00005D0D  66657265          gs o16 jc 0x5d76
00005D11  6E                outsb
00005D12  636549            arpl [ebp+0x49],sp
00005D15  54                push esp
00005D16  5F                pop edi
00005D17  45                inc ebp
00005D18  3474              xor al,0x74
00005D1A  7970              jns 0x5d8c
00005D1C  6545              gs inc ebp
00005D1E  4F                dec edi
00005D1F  53                push ebx
00005D20  335F00            xor ebx,[edi+0x0]
00005D23  5F                pop edi
00005D24  5A                pop edx
00005D25  4E                dec esi
00005D26  395F5F            cmp [edi+0x5f],ebx
00005D29  676E              a16 outsb
00005D2B  755F              jnz 0x5d8c
00005D2D  637878            arpl [eax+0x78],di
00005D30  3133              xor [ebx],esi
00005D32  6E                outsb
00005D33  65775F            gs ja 0x5d95
00005D36  61                popa
00005D37  6C                insb
00005D38  6C                insb
00005D39  6F                outsd
00005D3A  636174            arpl [ecx+0x74],sp
00005D3D  6F                outsd
00005D3E  7249              jc 0x5d89
00005D40  694539636F6E73    imul eax,[ebp+0x39],dword 0x736e6f63
00005D47  7472              jz 0x5dbb
00005D49  7563              jnz 0x5dae
00005D4B  7449              jz 0x5d96
00005D4D  694A524B694545    imul ecx,[edx+0x52],dword 0x4545694b
00005D54  45                inc ebp
00005D55  7650              jna 0x5da7
00005D57  54                push esp
00005D58  5F                pop edi
00005D59  44                inc esp
00005D5A  704F              jo 0x5dab
00005D5C  54                push esp
00005D5D  305F00            xor [edi+0x0],bl
00005D60  5F                pop edi
00005D61  5A                pop edx
00005D62  4E                dec esi
00005D63  53                push ebx
00005D64  7431              jz 0x5d97
00005D66  325F56            xor bl,[edi+0x56]
00005D69  6563746F72        arpl [gs:edi+ebp*2+0x72],si
00005D6E  5F                pop edi
00005D6F  626173            bound esp,[ecx+0x73]
00005D72  6549              gs dec ecx
00005D74  69536149694545    imul edx,[ebx+0x61],dword 0x45456949
00005D7B  43                inc ebx
00005D7C  324576            xor al,[ebp+0x76]
00005D7F  005F5F            add [edi+0x5f],bl
00005D82  7838              js 0x5dbc
00005D84  362E6765745F      gs jz 0x5de9
00005D8A  7063              jo 0x5def
00005D8C  5F                pop edi
00005D8D  7468              jz 0x5df7
00005D8F  756E              jnz 0x5dff
00005D91  6B2E62            imul ebp,[esi],byte +0x62
00005D94  7800              js 0x5d96
00005D96  5F                pop edi
00005D97  5A                pop edx
00005D98  4E                dec esi
00005D99  53                push ebx
00005D9A  7436              jz 0x5dd2
00005D9C  7665              jna 0x5e03
00005D9E  63746F72          arpl [edi+ebp*2+0x72],si
00005DA2  49                dec ecx
00005DA3  69536149694545    imul edx,[ebx+0x61],dword 0x45456949
00005DAA  3139              xor [ecx],edi
00005DAC  5F                pop edi
00005DAD  4D                dec ebp
00005DAE  5F                pop edi
00005DAF  656D              gs insd
00005DB1  706C              jo 0x5e1f
00005DB3  61                popa
00005DB4  63655F            arpl [ebp+0x5f],sp
00005DB7  626163            bound esp,[ecx+0x63]
00005DBA  6B5F6175          imul ebx,[edi+0x61],byte +0x75
00005DBE  7849              js 0x5e09
00005DC0  4A                dec edx
00005DC1  69454545764470    imul eax,[ebp+0x45],dword 0x70447645
00005DC8  4F                dec edi
00005DC9  54                push esp
00005DCA  5F                pop edi
00005DCB  005F5A            add [edi+0x5a],bl
00005DCE  53                push ebx
00005DCF  7438              jz 0x5e09
00005DD1  706F              jo 0x5e42
00005DD3  705F              jo 0x5e34
00005DD5  6865617049        push dword 0x49706165
00005DDA  4E                dec esi
00005DDB  395F5F            cmp [edi+0x5f],ebx
00005DDE  676E              a16 outsb
00005DE0  755F              jnz 0x5e41
00005DE2  637878            arpl [eax+0x78],di
00005DE5  3137              xor [edi],esi
00005DE7  5F                pop edi
00005DE8  5F                pop edi
00005DE9  6E                outsb
00005DEA  6F                outsd
00005DEB  726D              jc 0x5e5a
00005DED  61                popa
00005DEE  6C                insb
00005DEF  5F                pop edi
00005DF0  6974657261746F72  imul esi,[ebp+0x72],dword 0x726f7461
00005DF8  49                dec ecx
00005DF9  50                push eax
00005DFA  69537436766563    imul edx,[ebx+0x74],dword 0x63657636
00005E01  746F              jz 0x5e72
00005E03  7249              jc 0x5e4e
00005E05  69536149694545    imul edx,[ebx+0x61],dword 0x45456949
00005E0C  45                inc ebp
00005E0D  45                inc ebp
00005E0E  53                push ebx
00005E0F  7434              jz 0x5e45
00005E11  6C                insb
00005E12  657373            gs jnc 0x5e88
00005E15  49                dec ecx
00005E16  69454576545F53    imul eax,[ebp+0x45],dword 0x535f5476
00005E1D  395F54            cmp [edi+0x54],ebx
00005E20  305F00            xor [edi+0x0],bl
00005E23  5F                pop edi
00005E24  5A                pop edx
00005E25  4E                dec esi
00005E26  53                push ebx
00005E27  7431              jz 0x5e5a
00005E29  3470              xor al,0x70
00005E2B  7269              jc 0x5e96
00005E2D  6F                outsd
00005E2E  7269              jc 0x5e99
00005E30  7479              jz 0x5eab
00005E32  5F                pop edi
00005E33  7175              jno 0x5eaa
00005E35  657565            gs jnz 0x5e9d
00005E38  49                dec ecx
00005E39  69537436766563    imul edx,[ebx+0x74],dword 0x63657636
00005E40  746F              jz 0x5eb1
00005E42  7249              jc 0x5e8d
00005E44  69536149694545    imul edx,[ebx+0x61],dword 0x45456949
00005E4B  53                push ebx
00005E4C  7434              jz 0x5e82
00005E4E  6C                insb
00005E4F  657373            gs jnc 0x5ec5
00005E52  49                dec ecx
00005E53  69454534707573    imul eax,[ebp+0x45],dword 0x73757034
00005E5A  6845524B69        push dword 0x694b5245
00005E5F  005F5F            add [edi+0x5f],bl
00005E62  54                push esp
00005E63  4D                dec ebp
00005E64  43                inc ebx
00005E65  5F                pop edi
00005E66  45                inc ebp
00005E67  4E                dec esi
00005E68  44                inc esp
00005E69  5F                pop edi
00005E6A  5F                pop edi
00005E6B  005F5A            add [edi+0x5a],bl
00005E6E  4E                dec esi
00005E6F  53                push ebx
00005E70  7431              jz 0x5ea3
00005E72  336D6F            xor ebp,[ebp+0x6f]
00005E75  7665              jna 0x5edc
00005E77  5F                pop edi
00005E78  6974657261746F72  imul esi,[ebp+0x72],dword 0x726f7461
00005E80  49                dec ecx
00005E81  50                push eax
00005E82  69454331455330    imul eax,[ebp+0x43],dword 0x30534531
00005E89  5F                pop edi
00005E8A  005F5A            add [edi+0x5a],bl
00005E8D  53                push ebx
00005E8E  7438              jz 0x5ec8
00005E90  5F                pop edi
00005E91  44                inc esp
00005E92  657374            gs jnc 0x5f09
00005E95  726F              jc 0x5f06
00005E97  7949              jns 0x5ee2
00005E99  50                push eax
00005E9A  694576545F5331    imul eax,[ebp+0x76],dword 0x31535f54
00005EA1  5F                pop edi
00005EA2  005F5A            add [edi+0x5a],bl
00005EA5  53                push ebx
00005EA6  7439              jz 0x5ee1
00005EA8  7075              jo 0x5f1f
00005EAA  7368              jnc 0x5f14
00005EAC  5F                pop edi
00005EAD  6865617049        push dword 0x49706165
00005EB2  4E                dec esi
00005EB3  395F5F            cmp [edi+0x5f],ebx
00005EB6  676E              a16 outsb
00005EB8  755F              jnz 0x5f19
00005EBA  637878            arpl [eax+0x78],di
00005EBD  3137              xor [edi],esi
00005EBF  5F                pop edi
00005EC0  5F                pop edi
00005EC1  6E                outsb
00005EC2  6F                outsd
00005EC3  726D              jc 0x5f32
00005EC5  61                popa
00005EC6  6C                insb
00005EC7  5F                pop edi
00005EC8  6974657261746F72  imul esi,[ebp+0x72],dword 0x726f7461
00005ED0  49                dec ecx
00005ED1  50                push eax
00005ED2  69537436766563    imul edx,[ebx+0x74],dword 0x63657636
00005ED9  746F              jz 0x5f4a
00005EDB  7249              jc 0x5f26
00005EDD  69536149694545    imul edx,[ebx+0x61],dword 0x45456949
00005EE4  45                inc ebp
00005EE5  45                inc ebp
00005EE6  53                push ebx
00005EE7  7434              jz 0x5f1d
00005EE9  6C                insb
00005EEA  657373            gs jnc 0x5f60
00005EED  49                dec ecx
00005EEE  69454576545F53    imul eax,[ebp+0x45],dword 0x535f5476
00005EF5  395F54            cmp [edi+0x54],ebx
00005EF8  305F00            xor [edi+0x0],bl
00005EFB  5F                pop edi
00005EFC  5F                pop edi
00005EFD  64736F            fs jnc 0x5f6f
00005F00  5F                pop edi
00005F01  68616E646C        push dword 0x6c646e61
00005F06  65005F5A          add [gs:edi+0x5a],bl
00005F0A  4E                dec esi
00005F0B  53                push ebx
00005F0C  7436              jz 0x5f44
00005F0E  7665              jna 0x5f75
00005F10  63746F72          arpl [edi+ebp*2+0x72],si
00005F14  49                dec ecx
00005F15  69536149694545    imul edx,[ebx+0x61],dword 0x45456949
00005F1C  3132              xor [edx],esi
00005F1E  656D              gs insd
00005F20  706C              jo 0x5f8e
00005F22  61                popa
00005F23  63655F            arpl [ebp+0x5f],sp
00005F26  626163            bound esp,[ecx+0x63]
00005F29  6B494969          imul ecx,[ecx+0x49],byte +0x69
00005F2D  45                inc ebp
00005F2E  45                inc ebp
00005F2F  45                inc ebp
00005F30  7644              jna 0x5f76
00005F32  704F              jo 0x5f83
00005F34  54                push esp
00005F35  5F                pop edi
00005F36  005F5A            add [edi+0x5a],bl
00005F39  4E                dec esi
00005F3A  4B                dec ebx
00005F3B  53                push ebx
00005F3C  7436              jz 0x5f74
00005F3E  7665              jna 0x5fa5
00005F40  63746F72          arpl [edi+ebp*2+0x72],si
00005F44  49                dec ecx
00005F45  69536149694545    imul edx,[ebx+0x61],dword 0x45456949
00005F4C  3132              xor [edx],esi
00005F4E  5F                pop edi
00005F4F  4D                dec ebp
00005F50  5F                pop edi
00005F51  636865            arpl [eax+0x65],bp
00005F54  636B5F            arpl [ebx+0x5f],bp
00005F57  6C                insb
00005F58  656E              gs outsb
00005F5A  45                inc ebp
00005F5B  6A50              push byte +0x50
00005F5D  4B                dec ebx
00005F5E  6300              arpl [eax],ax
00005F60  5F                pop edi
00005F61  5A                pop edx
00005F62  4E                dec esi
00005F63  395F5F            cmp [edi+0x5f],ebx
00005F66  676E              a16 outsb
00005F68  755F              jnz 0x5fc9
00005F6A  637878            arpl [eax+0x78],di
00005F6D  3137              xor [edi],esi
00005F6F  5F                pop edi
00005F70  5F                pop edi
00005F71  6E                outsb
00005F72  6F                outsd
00005F73  726D              jc 0x5fe2
00005F75  61                popa
00005F76  6C                insb
00005F77  5F                pop edi
00005F78  6974657261746F72  imul esi,[ebp+0x72],dword 0x726f7461
00005F80  49                dec ecx
00005F81  50                push eax
00005F82  69537436766563    imul edx,[ebx+0x74],dword 0x63657636
00005F89  746F              jz 0x5ffa
00005F8B  7249              jc 0x5fd6
00005F8D  69536149694545    imul edx,[ebx+0x61],dword 0x45456949
00005F94  45                inc ebp
00005F95  43                inc ebx
00005F96  314552            xor [ebp+0x52],eax
00005F99  4B                dec ebx
00005F9A  53                push ebx
00005F9B  315F00            xor [edi+0x0],ebx
00005F9E  5F                pop edi
00005F9F  5A                pop edx
00005FA0  53                push ebx
00005FA1  7432              jz 0x5fd5
00005FA3  325F5F            xor bl,[edi+0x5f]
00005FA6  756E              jnz 0x6016
00005FA8  696E697469616C    imul ebp,[esi+0x69],dword 0x6c616974
00005FAF  697A65645F636F    imul edi,[edx+0x65],dword 0x6f635f64
00005FB6  7079              jo 0x6031
00005FB8  5F                pop edi
00005FB9  61                popa
00005FBA  49                dec ecx
00005FBB  53                push ebx
00005FBC  7431              jz 0x5fef
00005FBE  336D6F            xor ebp,[ebp+0x6f]
00005FC1  7665              jna 0x6028
00005FC3  5F                pop edi
00005FC4  6974657261746F72  imul esi,[ebp+0x72],dword 0x726f7461
00005FCC  49                dec ecx
00005FCD  50                push eax
00005FCE  694553315F6945    imul eax,[ebp+0x53],dword 0x45695f31
00005FD5  54                push esp
00005FD6  305F54            xor [edi+0x54],bl
00005FD9  5F                pop edi
00005FDA  53                push ebx
00005FDB  345F              xor al,0x5f
00005FDD  53                push ebx
00005FDE  335F52            xor ebx,[edi+0x52]
00005FE1  53                push ebx
00005FE2  61                popa
00005FE3  49                dec ecx
00005FE4  54                push esp
00005FE5  315F45            xor [edi+0x45],ebx
00005FE8  005F5A            add [edi+0x5a],bl
00005FEB  4E                dec esi
00005FEC  53                push ebx
00005FED  7436              jz 0x6025
00005FEF  7665              jna 0x6056
00005FF1  63746F72          arpl [edi+ebp*2+0x72],si
00005FF5  49                dec ecx
00005FF6  69536149694545    imul edx,[ebx+0x61],dword 0x45456949
00005FFD  3562656769        xor eax,0x69676562
00006002  6E                outsb
00006003  45                inc ebp
00006004  7600              jna 0x6006
00006006  5F                pop edi
00006007  5A                pop edx
00006008  4E                dec esi
00006009  53                push ebx
0000600A  7431              jz 0x603d
0000600C  305F49            xor [edi+0x49],bl
0000600F  7465              jz 0x6076
00006011  725F              jc 0x6072
00006013  626173            bound esp,[ecx+0x73]
00006016  6549              gs dec ecx
00006018  50                push eax
00006019  694C62304545375F  imul ecx,[edx+0x30],dword 0x5f374545
00006021  53                push ebx
00006022  5F                pop edi
00006023  626173            bound esp,[ecx+0x73]
00006026  6545              gs inc ebp
00006028  53                push ebx
00006029  305F00            xor [edi+0x0],bl
0000602C  5F                pop edi
0000602D  5A                pop edx
0000602E  4E                dec esi
0000602F  395F5F            cmp [edi+0x5f],ebx
00006032  676E              a16 outsb
00006034  755F              jnz 0x6095
00006036  637878            arpl [eax+0x78],di
00006039  3133              xor [ebx],esi
0000603B  6E                outsb
0000603C  65775F            gs ja 0x609e
0000603F  61                popa
00006040  6C                insb
00006041  6C                insb
00006042  6F                outsd
00006043  636174            arpl [ecx+0x74],sp
00006046  6F                outsd
00006047  7249              jc 0x6092
00006049  6945433245524B    imul eax,[ebp+0x43],dword 0x4b524532
00006050  53                push ebx
00006051  315F00            xor [edi+0x0],ebx
00006054  5F                pop edi
00006055  5F                pop edi
00006056  6C                insb
00006057  6962635F637375    imul esp,[edx+0x63],dword 0x7573635f
0000605E  5F                pop edi
0000605F  696E6974007072    imul ebp,[esi+0x69],dword 0x72700074
00006066  696E7466404047    imul ebp,[esi+0x74],dword 0x47404066
0000606D  4C                dec esp
0000606E  49                dec ecx
0000606F  42                inc edx
00006070  43                inc ebx
00006071  5F                pop edi
00006072  322E              xor ch,[esi]
00006074  3000              xor [eax],al
00006076  5F                pop edi
00006077  5A                pop edx
00006078  4E                dec esi
00006079  53                push ebx
0000607A  61                popa
0000607B  49                dec ecx
0000607C  69454432457600    imul eax,[ebp+0x44],dword 0x764532
00006083  5F                pop edi
00006084  5A                pop edx
00006085  53                push ebx
00006086  7437              jz 0x60bf
00006088  666F              outsw
0000608A  7277              jc 0x6103
0000608C  61                popa
0000608D  7264              jc 0x60f3
0000608F  49                dec ecx
00006090  52                push edx
00006091  4B                dec ebx
00006092  69454F545F524E    imul eax,[ebp+0x4f],dword 0x4e525f54
00006099  53                push ebx
0000609A  7431              jz 0x60cd
0000609C  367265            ss jc 0x6104
0000609F  6D                insd
000060A0  6F                outsd
000060A1  7665              jna 0x6108
000060A3  5F                pop edi
000060A4  7265              jc 0x610b
000060A6  66657265          gs o16 jc 0x610f
000060AA  6E                outsb
000060AB  636549            arpl [ebp+0x49],sp
000060AE  53                push ebx
000060AF  325F45            xor bl,[edi+0x45]
000060B2  3474              xor al,0x74
000060B4  7970              jns 0x6126
000060B6  6545              gs inc ebp
000060B8  005F5A            add [edi+0x5a],bl
000060BB  4E                dec esi
000060BC  395F5F            cmp [edi+0x5f],ebx
000060BF  676E              a16 outsb
000060C1  755F              jnz 0x6122
000060C3  637878            arpl [eax+0x78],di
000060C6  3137              xor [edi],esi
000060C8  5F                pop edi
000060C9  5F                pop edi
000060CA  6E                outsb
000060CB  6F                outsd
000060CC  726D              jc 0x613b
000060CE  61                popa
000060CF  6C                insb
000060D0  5F                pop edi
000060D1  6974657261746F72  imul esi,[ebp+0x72],dword 0x726f7461
000060D9  49                dec ecx
000060DA  50                push eax
000060DB  4B                dec ebx
000060DC  69537436766563    imul edx,[ebx+0x74],dword 0x63657636
000060E3  746F              jz 0x6154
000060E5  7249              jc 0x6130
000060E7  69536149694545    imul edx,[ebx+0x61],dword 0x45456949
000060EE  45                inc ebp
000060EF  43                inc ebx
000060F0  314552            xor [ebp+0x52],eax
000060F3  4B                dec ebx
000060F4  53                push ebx
000060F5  325F00            xor bl,[edi+0x0]
000060F8  5F                pop edi
000060F9  5A                pop edx
000060FA  4E                dec esi
000060FB  53                push ebx
000060FC  61                popa
000060FD  49                dec ecx
000060FE  69454331457600    imul eax,[ebp+0x43],dword 0x764531
00006105  5F                pop edi
00006106  5A                pop edx
00006107  4E                dec esi
00006108  395F5F            cmp [edi+0x5f],ebx
0000610B  676E              a16 outsb
0000610D  755F              jnz 0x616e
0000610F  637878            arpl [eax+0x78],di
00006112  3137              xor [edi],esi
00006114  5F                pop edi
00006115  5F                pop edi
00006116  6E                outsb
00006117  6F                outsd
00006118  726D              jc 0x6187
0000611A  61                popa
0000611B  6C                insb
0000611C  5F                pop edi
0000611D  6974657261746F72  imul esi,[ebp+0x72],dword 0x726f7461
00006125  49                dec ecx
00006126  50                push eax
00006127  69537436766563    imul edx,[ebx+0x74],dword 0x63657636
0000612E  746F              jz 0x619f
00006130  7249              jc 0x617b
00006132  69536149694545    imul edx,[ebx+0x61],dword 0x45456949
00006139  45                inc ebp
0000613A  43                inc ebx
0000613B  324552            xor al,[ebp+0x52]
0000613E  4B                dec ebx
0000613F  53                push ebx
00006140  315F00            xor [edi+0x0],ebx
00006143  5F                pop edi
00006144  5A                pop edx
00006145  6E                outsb
00006146  776A              ja 0x61b2
00006148  40                inc eax
00006149  40                inc eax
0000614A  47                inc edi
0000614B  4C                dec esp
0000614C  49                dec ecx
0000614D  42                inc edx
0000614E  43                inc ebx
0000614F  58                pop eax
00006150  58                pop eax
00006151  5F                pop edi
00006152  332E              xor ebp,[esi]
00006154  3400              xor al,0x0
00006156  5F                pop edi
00006157  5A                pop edx
00006158  4E                dec esi
00006159  53                push ebx
0000615A  7431              jz 0x618d
0000615C  3661              ss popa
0000615E  6C                insb
0000615F  6C                insb
00006160  6F                outsd
00006161  636174            arpl [ecx+0x74],sp
00006164  6F                outsd
00006165  725F              jc 0x61c6
00006167  7472              jz 0x61db
00006169  61                popa
0000616A  6974734953614969  imul esi,[ebx+esi*2+0x49],dword 0x69496153
00006172  45                inc ebp
00006173  45                inc ebp
00006174  39636F            cmp [ebx+0x6f],esp
00006177  6E                outsb
00006178  7374              jnc 0x61ee
0000617A  7275              jc 0x61f1
0000617C  63744969          arpl [ecx+ecx*2+0x69],si
00006180  4A                dec edx
00006181  69454545445463    imul eax,[ebp+0x45],dword 0x63544445
00006188  6C                insb
00006189  3132              xor [edx],esi
0000618B  5F                pop edi
0000618C  53                push ebx
0000618D  5F                pop edi
0000618E  636F6E            arpl [edi+0x6e],bp
00006191  7374              jnc 0x6207
00006193  7275              jc 0x620a
00006195  63746670          arpl [esi+0x70],si
00006199  5F                pop edi
0000619A  667030            o16 jo 0x61cd
0000619D  5F                pop edi
0000619E  7370              jnc 0x6210
000061A0  636C3766          arpl [edi+esi+0x66],bp
000061A4  6F                outsd
000061A5  7277              jc 0x621e
000061A7  61                popa
000061A8  7264              jc 0x620e
000061AA  49                dec ecx
000061AB  54                push esp
000061AC  305F45            xor [edi+0x45],bl
000061AF  667031            o16 jo 0x61e3
000061B2  5F                pop edi
000061B3  45                inc ebp
000061B4  45                inc ebp
000061B5  45                inc ebp
000061B6  52                push edx
000061B7  53                push ebx
000061B8  305F50            xor [edi+0x50],bl
000061BB  54                push esp
000061BC  5F                pop edi
000061BD  44                inc esp
000061BE  704F              jo 0x620f
000061C0  53                push ebx
000061C1  335F00            xor ebx,[edi+0x0]
000061C4  5F                pop edi
000061C5  5A                pop edx
000061C6  4E                dec esi
000061C7  4B                dec ebx
000061C8  395F5F            cmp [edi+0x5f],ebx
000061CB  676E              a16 outsb
000061CD  755F              jnz 0x622e
000061CF  637878            arpl [eax+0x78],di
000061D2  3137              xor [edi],esi
000061D4  5F                pop edi
000061D5  5F                pop edi
000061D6  6E                outsb
000061D7  6F                outsd
000061D8  726D              jc 0x6247
000061DA  61                popa
000061DB  6C                insb
000061DC  5F                pop edi
000061DD  6974657261746F72  imul esi,[ebp+0x72],dword 0x726f7461
000061E5  49                dec ecx
000061E6  50                push eax
000061E7  69537436766563    imul edx,[ebx+0x74],dword 0x63657636
000061EE  746F              jz 0x625f
000061F0  7249              jc 0x623b
000061F2  69536149694545    imul edx,[ebx+0x61],dword 0x45456949
000061F9  45                inc ebp
000061FA  6D                insd
000061FB  6945524B69005F    imul eax,[ebp+0x52],dword 0x5f00694b
00006202  5A                pop edx
00006203  4E                dec esi
00006204  53                push ebx
00006205  7436              jz 0x623d
00006207  7665              jna 0x626e
00006209  63746F72          arpl [edi+ebp*2+0x72],si
0000620D  49                dec ecx
0000620E  69536149694545    imul edx,[ebx+0x61],dword 0x45456949
00006215  44                inc esp
00006216  324576            xor al,[ebp+0x76]
00006219  005F5A            add [edi+0x5a],bl
0000621C  4E                dec esi
0000621D  53                push ebx
0000621E  7431              jz 0x6251
00006220  325F56            xor bl,[edi+0x56]
00006223  6563746F72        arpl [gs:edi+ebp*2+0x72],si
00006228  5F                pop edi
00006229  626173            bound esp,[ecx+0x73]
0000622C  6549              gs dec ecx
0000622E  69536149694545    imul edx,[ebx+0x61],dword 0x45456949
00006235  3132              xor [edx],esi
00006237  5F                pop edi
00006238  56                push esi
00006239  6563746F72        arpl [gs:edi+ebp*2+0x72],si
0000623E  5F                pop edi
0000623F  696D706C433245    imul ebp,[ebp+0x70],dword 0x4532436c
00006246  4F                dec edi
00006247  53                push ebx
00006248  305F00            xor [edi+0x0],bl
0000624B  5F                pop edi
0000624C  5A                pop edx
0000624D  4E                dec esi
0000624E  53                push ebx
0000624F  7436              jz 0x6287
00006251  7665              jna 0x62b8
00006253  63746F72          arpl [edi+ebp*2+0x72],si
00006257  49                dec ecx
00006258  69536149694545    imul edx,[ebx+0x61],dword 0x45456949
0000625F  43                inc ebx
00006260  31454F            xor [ebp+0x4f],eax
00006263  53                push ebx
00006264  315F00            xor [edi+0x0],ebx
00006267  5F                pop edi
00006268  5A                pop edx
00006269  4E                dec esi
0000626A  53                push ebx
0000626B  7436              jz 0x62a3
0000626D  7665              jna 0x62d4
0000626F  63746F72          arpl [edi+ebp*2+0x72],si
00006273  49                dec ecx
00006274  69536149694545    imul edx,[ebx+0x61],dword 0x45456949
0000627B  43                inc ebx
0000627C  314576            xor [ebp+0x76],eax
0000627F  005F5F            add [edi+0x5f],bl
00006282  627373            bound esi,[ebx+0x73]
00006285  5F                pop edi
00006286  7374              jnc 0x62fc
00006288  61                popa
00006289  7274              jc 0x62ff
0000628B  005F5A            add [edi+0x5a],bl
0000628E  53                push ebx
0000628F  7433              jz 0x62c4
00006291  6D                insd
00006292  61                popa
00006293  7849              js 0x62de
00006295  6A45              push byte +0x45
00006297  52                push edx
00006298  4B                dec ebx
00006299  54                push esp
0000629A  5F                pop edi
0000629B  53                push ebx
0000629C  325F53            xor bl,[edi+0x53]
0000629F  325F00            xor bl,[edi+0x0]
000062A2  5F                pop edi
000062A3  5A                pop edx
000062A4  4E                dec esi
000062A5  53                push ebx
000062A6  61                popa
000062A7  49                dec ecx
000062A8  6945433245524B    imul eax,[ebp+0x43],dword 0x4b524532
000062AF  53                push ebx
000062B0  5F                pop edi
000062B1  005F5A            add [edi+0x5a],bl
000062B4  53                push ebx
000062B5  7434              jz 0x62eb
000062B7  6D                insd
000062B8  6F                outsd
000062B9  7665              jna 0x6320
000062BB  49                dec ecx
000062BC  52                push edx
000062BD  53                push ebx
000062BE  61                popa
000062BF  49                dec ecx
000062C0  6945454F4E5374    imul eax,[ebp+0x45],dword 0x74534e4f
000062C7  3136              xor [esi],esi
000062C9  7265              jc 0x6330
000062CB  6D                insd
000062CC  6F                outsd
000062CD  7665              jna 0x6334
000062CF  5F                pop edi
000062D0  7265              jc 0x6337
000062D2  66657265          gs o16 jc 0x633b
000062D6  6E                outsb
000062D7  636549            arpl [ebp+0x49],sp
000062DA  54                push esp
000062DB  5F                pop edi
000062DC  45                inc ebp
000062DD  3474              xor al,0x74
000062DF  7970              jns 0x6351
000062E1  6545              gs inc ebp
000062E3  4F                dec edi
000062E4  53                push ebx
000062E5  335F00            xor ebx,[edi+0x0]
000062E8  5F                pop edi
000062E9  5A                pop edx
000062EA  4E                dec esi
000062EB  53                push ebx
000062EC  7431              jz 0x631f
000062EE  325F56            xor bl,[edi+0x56]
000062F1  6563746F72        arpl [gs:edi+ebp*2+0x72],si
000062F6  5F                pop edi
000062F7  626173            bound esp,[ecx+0x73]
000062FA  6549              gs dec ecx
000062FC  69536149694545    imul edx,[ebx+0x61],dword 0x45456949
00006303  3132              xor [edx],esi
00006305  5F                pop edi
00006306  56                push esi
00006307  6563746F72        arpl [gs:edi+ebp*2+0x72],si
0000630C  5F                pop edi
0000630D  696D706C433145    imul ebp,[ebp+0x70],dword 0x4531436c
00006314  7600              jna 0x6316
00006316  5F                pop edi
00006317  5A                pop edx
00006318  4E                dec esi
00006319  395F5F            cmp [edi+0x5f],ebx
0000631C  676E              a16 outsb
0000631E  755F              jnz 0x637f
00006320  637878            arpl [eax+0x78],di
00006323  3137              xor [edi],esi
00006325  5F                pop edi
00006326  5F                pop edi
00006327  6E                outsb
00006328  6F                outsd
00006329  726D              jc 0x6398
0000632B  61                popa
0000632C  6C                insb
0000632D  5F                pop edi
0000632E  6974657261746F72  imul esi,[ebp+0x72],dword 0x726f7461
00006336  49                dec ecx
00006337  50                push eax
00006338  69537436766563    imul edx,[ebx+0x74],dword 0x63657636
0000633F  746F              jz 0x63b0
00006341  7249              jc 0x638c
00006343  69536149694545    imul edx,[ebx+0x61],dword 0x45456949
0000634A  45                inc ebp
0000634B  6D                insd
0000634C  6D                insd
0000634D  45                inc ebp
0000634E  7600              jna 0x6350
00006350  5F                pop edi
00006351  5A                pop edx
00006352  53                push ebx
00006353  7434              jz 0x6389
00006355  6D                insd
00006356  6F                outsd
00006357  7665              jna 0x63be
00006359  49                dec ecx
0000635A  52                push edx
0000635B  69454F4E537431    imul eax,[ebp+0x4f],dword 0x3174534e
00006362  367265            ss jc 0x63ca
00006365  6D                insd
00006366  6F                outsd
00006367  7665              jna 0x63ce
00006369  5F                pop edi
0000636A  7265              jc 0x63d1
0000636C  66657265          gs o16 jc 0x63d5
00006370  6E                outsb
00006371  636549            arpl [ebp+0x49],sp
00006374  54                push esp
00006375  5F                pop edi
00006376  45                inc ebp
00006377  3474              xor al,0x74
00006379  7970              jns 0x63eb
0000637B  6545              gs inc ebp
0000637D  4F                dec edi
0000637E  53                push ebx
0000637F  325F00            xor bl,[edi+0x0]
00006382  5F                pop edi
00006383  5A                pop edx
00006384  4E                dec esi
00006385  53                push ebx
00006386  7436              jz 0x63be
00006388  7665              jna 0x63ef
0000638A  63746F72          arpl [edi+ebp*2+0x72],si
0000638E  49                dec ecx
0000638F  69536149694545    imul edx,[ebx+0x61],dword 0x45456949
00006396  397075            cmp [eax+0x75],esi
00006399  7368              jnc 0x6403
0000639B  5F                pop edi
0000639C  626163            bound esp,[ecx+0x63]
0000639F  6B454F69          imul eax,[ebp+0x4f],byte +0x69
000063A3  005F5A            add [edi+0x5a],bl
000063A6  4E                dec esi
000063A7  53                push ebx
000063A8  7431              jz 0x63db
000063AA  3661              ss popa
000063AC  6C                insb
000063AD  6C                insb
000063AE  6F                outsd
000063AF  636174            arpl [ecx+0x74],sp
000063B2  6F                outsd
000063B3  725F              jc 0x6414
000063B5  7472              jz 0x6429
000063B7  61                popa
000063B8  6974734953614969  imul esi,[ebx+esi*2+0x49],dword 0x69496153
000063C0  45                inc ebp
000063C1  45                inc ebp
000063C2  3132              xor [edx],esi
000063C4  5F                pop edi
000063C5  53                push ebx
000063C6  5F                pop edi
000063C7  636F6E            arpl [edi+0x6e],bp
000063CA  7374              jnc 0x6440
000063CC  7275              jc 0x6443
000063CE  63744969          arpl [ecx+ecx*2+0x69],si
000063D2  4A                dec edx
000063D3  52                push edx
000063D4  4B                dec ebx
000063D5  694545454E5374    imul eax,[ebp+0x45],dword 0x74534e45
000063DC  39656E            cmp [ebp+0x6e],esp
000063DF  61                popa
000063E0  626C655F          bound ebp,[ebp+0x5f]
000063E4  6966495873724E    imul esp,[esi+0x49],dword 0x4e727358
000063EB  53                push ebx
000063EC  315F31            xor [edi+0x31],ebx
000063EF  385F5F            cmp [edi+0x5f],bl
000063F2  636F6E            arpl [edi+0x6e],bp
000063F5  7374              jnc 0x646b
000063F7  7275              jc 0x646e
000063F9  63745F68          arpl [edi+ebx*2+0x68],si
000063FD  656C              gs insb
000063FF  7065              jo 0x6466
00006401  7249              jc 0x644c
00006403  54                push esp
00006404  5F                pop edi
00006405  4A                dec edx
00006406  44                inc esp
00006407  7054              jo 0x645d
00006409  305F45            xor [edi+0x45],bl
0000640C  45                inc ebp
0000640D  45                inc ebp
0000640E  3576616C75        xor eax,0x756c6176
00006413  6545              gs inc ebp
00006415  7645              jna 0x645c
00006417  3474              xor al,0x74
00006419  7970              jns 0x648b
0000641B  6545              gs inc ebp
0000641D  52                push edx
0000641E  53                push ebx
0000641F  305F50            xor [edi+0x50],bl
00006422  53                push ebx
00006423  37                aaa
00006424  5F                pop edi
00006425  44                inc esp
00006426  704F              jo 0x6477
00006428  53                push ebx
00006429  385F00            cmp [edi+0x0],bl
0000642C  5F                pop edi
0000642D  5A                pop edx
0000642E  4E                dec esi
0000642F  53                push ebx
00006430  7431              jz 0x6463
00006432  3661              ss popa
00006434  6C                insb
00006435  6C                insb
00006436  6F                outsd
00006437  636174            arpl [ecx+0x74],sp
0000643A  6F                outsd
0000643B  725F              jc 0x649c
0000643D  7472              jz 0x64b1
0000643F  61                popa
00006440  6974734953614969  imul esi,[ebx+esi*2+0x49],dword 0x69496153
00006448  45                inc ebp
00006449  45                inc ebp
0000644A  37                aaa
0000644B  64657374          gs jnc 0x64c3
0000644F  726F              jc 0x64c0
00006451  7949              jns 0x649c
00006453  69454576525330    imul eax,[ebp+0x45],dword 0x30535276
0000645A  5F                pop edi
0000645B  50                push eax
0000645C  54                push esp
0000645D  5F                pop edi
0000645E  005F5A            add [edi+0x5a],bl
00006461  4E                dec esi
00006462  53                push ebx
00006463  7436              jz 0x649b
00006465  7665              jna 0x64cc
00006467  63746F72          arpl [edi+ebp*2+0x72],si
0000646B  49                dec ecx
0000646C  69536149694545    imul edx,[ebx+0x61],dword 0x45456949
00006473  3139              xor [ecx],edi
00006475  5F                pop edi
00006476  4D                dec ebp
00006477  5F                pop edi
00006478  656D              gs insd
0000647A  706C              jo 0x64e8
0000647C  61                popa
0000647D  63655F            arpl [ebp+0x5f],sp
00006480  626163            bound esp,[ecx+0x63]
00006483  6B5F6175          imul ebx,[edi+0x61],byte +0x75
00006487  7849              js 0x64d2
00006489  49                dec ecx
0000648A  69454545764470    imul eax,[ebp+0x45],dword 0x70447645
00006491  4F                dec edi
00006492  54                push esp
00006493  5F                pop edi
00006494  005F5A            add [edi+0x5a],bl
00006497  4E                dec esi
00006498  53                push ebx
00006499  7431              jz 0x64cc
0000649B  325F56            xor bl,[edi+0x56]
0000649E  6563746F72        arpl [gs:edi+ebp*2+0x72],si
000064A3  5F                pop edi
000064A4  626173            bound esp,[ecx+0x73]
000064A7  6549              gs dec ecx
000064A9  69536149694545    imul edx,[ebx+0x61],dword 0x45456949
000064B0  43                inc ebx
000064B1  31454F            xor [ebp+0x4f],eax
000064B4  53                push ebx
000064B5  315F00            xor [edi+0x0],ebx
000064B8  5F                pop edi
000064B9  5A                pop edx
000064BA  4E                dec esi
000064BB  53                push ebx
000064BC  7431              jz 0x64ef
000064BE  3661              ss popa
000064C0  6C                insb
000064C1  6C                insb
000064C2  6F                outsd
000064C3  636174            arpl [ecx+0x74],sp
000064C6  6F                outsd
000064C7  725F              jc 0x6528
000064C9  7472              jz 0x653d
000064CB  61                popa
000064CC  6974734953614969  imul esi,[ebx+esi*2+0x49],dword 0x69496153
000064D4  45                inc ebp
000064D5  45                inc ebp
000064D6  3132              xor [edx],esi
000064D8  5F                pop edi
000064D9  53                push ebx
000064DA  5F                pop edi
000064DB  636F6E            arpl [edi+0x6e],bp
000064DE  7374              jnc 0x6554
000064E0  7275              jc 0x6557
000064E2  63744969          arpl [ecx+ecx*2+0x69],si
000064E6  49                dec ecx
000064E7  694545454E5374    imul eax,[ebp+0x45],dword 0x74534e45
000064EE  39656E            cmp [ebp+0x6e],esp
000064F1  61                popa
000064F2  626C655F          bound ebp,[ebp+0x5f]
000064F6  6966495873724E    imul esp,[esi+0x49],dword 0x4e727358
000064FD  53                push ebx
000064FE  315F31            xor [edi+0x31],ebx
00006501  385F5F            cmp [edi+0x5f],bl
00006504  636F6E            arpl [edi+0x6e],bp
00006507  7374              jnc 0x657d
00006509  7275              jc 0x6580
0000650B  63745F68          arpl [edi+ebx*2+0x68],si
0000650F  656C              gs insb
00006511  7065              jo 0x6578
00006513  7249              jc 0x655e
00006515  54                push esp
00006516  5F                pop edi
00006517  49                dec ecx
00006518  44                inc esp
00006519  7054              jo 0x656f
0000651B  305F45            xor [edi+0x45],bl
0000651E  45                inc ebp
0000651F  45                inc ebp
00006520  3576616C75        xor eax,0x756c6176
00006525  6545              gs inc ebp
00006527  7645              jna 0x656e
00006529  3474              xor al,0x74
0000652B  7970              jns 0x659d
0000652D  6545              gs inc ebp
0000652F  52                push edx
00006530  53                push ebx
00006531  305F50            xor [edi+0x50],bl
00006534  53                push ebx
00006535  355F44704F        xor eax,0x4f70445f
0000653A  53                push ebx
0000653B  365F              ss pop edi
0000653D  005F5A            add [edi+0x5a],bl
00006540  53                push ebx
00006541  7439              jz 0x657c
00006543  6D                insd
00006544  61                popa
00006545  6B655F68          imul esp,[ebp+0x5f],byte +0x68
00006549  6561              gs popa
0000654B  7049              jo 0x6596
0000654D  4E                dec esi
0000654E  395F5F            cmp [edi+0x5f],ebx
00006551  676E              a16 outsb
00006553  755F              jnz 0x65b4
00006555  637878            arpl [eax+0x78],di
00006558  3137              xor [edi],esi
0000655A  5F                pop edi
0000655B  5F                pop edi
0000655C  6E                outsb
0000655D  6F                outsd
0000655E  726D              jc 0x65cd
00006560  61                popa
00006561  6C                insb
00006562  5F                pop edi
00006563  6974657261746F72  imul esi,[ebp+0x72],dword 0x726f7461
0000656B  49                dec ecx
0000656C  50                push eax
0000656D  69537436766563    imul edx,[ebx+0x74],dword 0x63657636
00006574  746F              jz 0x65e5
00006576  7249              jc 0x65c1
00006578  69536149694545    imul edx,[ebx+0x61],dword 0x45456949
0000657F  45                inc ebp
00006580  45                inc ebp
00006581  53                push ebx
00006582  7434              jz 0x65b8
00006584  6C                insb
00006585  657373            gs jnc 0x65fb
00006588  49                dec ecx
00006589  69454576545F53    imul eax,[ebp+0x45],dword 0x535f5476
00006590  395F54            cmp [edi+0x54],ebx
00006593  305F00            xor [edi+0x0],bl
00006596  6D                insd
00006597  656D              gs insd
00006599  6D                insd
0000659A  6F                outsd
0000659B  7665              jna 0x6602
0000659D  40                inc eax
0000659E  40                inc eax
0000659F  47                inc edi
000065A0  4C                dec esp
000065A1  49                dec ecx
000065A2  42                inc edx
000065A3  43                inc ebx
000065A4  5F                pop edi
000065A5  322E              xor ch,[esi]
000065A7  3000              xor [eax],al
000065A9  5F                pop edi
000065AA  5A                pop edx
000065AB  4E                dec esi
000065AC  395F5F            cmp [edi+0x5f],ebx
000065AF  676E              a16 outsb
000065B1  755F              jnz 0x6612
000065B3  637878            arpl [eax+0x78],di
000065B6  3133              xor [ebx],esi
000065B8  6E                outsb
000065B9  65775F            gs ja 0x661b
000065BC  61                popa
000065BD  6C                insb
000065BE  6C                insb
000065BF  6F                outsd
000065C0  636174            arpl [ecx+0x74],sp
000065C3  6F                outsd
000065C4  7249              jc 0x660f
000065C6  694538616C6C6F    imul eax,[ebp+0x38],dword 0x6f6c6c61
000065CD  636174            arpl [ecx+0x74],sp
000065D0  6545              gs inc ebp
000065D2  6A50              push byte +0x50
000065D4  4B                dec ebx
000065D5  7600              jna 0x65d7
000065D7  5F                pop edi
000065D8  5A                pop edx
000065D9  53                push ebx
000065DA  7431              jz 0x660d
000065DC  38756E            cmp [ebp+0x6e],dh
000065DF  696E697469616C    imul ebp,[esi+0x69],dword 0x6c616974
000065E6  697A65645F636F    imul edi,[edx+0x65],dword 0x6f635f64
000065ED  7079              jo 0x6668
000065EF  49                dec ecx
000065F0  53                push ebx
000065F1  7431              jz 0x6624
000065F3  336D6F            xor ebp,[ebp+0x6f]
000065F6  7665              jna 0x665d
000065F8  5F                pop edi
000065F9  6974657261746F72  imul esi,[ebp+0x72],dword 0x726f7461
00006601  49                dec ecx
00006602  50                push eax
00006603  694553315F4554    imul eax,[ebp+0x53],dword 0x54455f31
0000660A  305F54            xor [edi+0x54],bl
0000660D  5F                pop edi
0000660E  53                push ebx
0000660F  345F              xor al,0x5f
00006611  53                push ebx
00006612  335F00            xor ebx,[edi+0x0]
00006615  5F                pop edi
00006616  5A                pop edx
00006617  4E                dec esi
00006618  53                push ebx
00006619  7431              jz 0x664c
0000661B  3470              xor al,0x70
0000661D  7269              jc 0x6688
0000661F  6F                outsd
00006620  7269              jc 0x668b
00006622  7479              jz 0x669d
00006624  5F                pop edi
00006625  7175              jno 0x669c
00006627  657565            gs jnz 0x668f
0000662A  49                dec ecx
0000662B  69537436766563    imul edx,[ebx+0x74],dword 0x63657636
00006632  746F              jz 0x66a3
00006634  7249              jc 0x667f
00006636  69536149694545    imul edx,[ebx+0x61],dword 0x45456949
0000663D  53                push ebx
0000663E  7434              jz 0x6674
00006640  6C                insb
00006641  657373            gs jnc 0x66b7
00006644  49                dec ecx
00006645  69454533706F70    imul eax,[ebp+0x45],dword 0x706f7033
0000664C  45                inc ebp
0000664D  7600              jna 0x664f
0000664F  5F                pop edi
00006650  5A                pop edx
00006651  4E                dec esi
00006652  4B                dec ebx
00006653  395F5F            cmp [edi+0x5f],ebx
00006656  676E              a16 outsb
00006658  755F              jnz 0x66b9
0000665A  637878            arpl [eax+0x78],di
0000665D  3137              xor [edi],esi
0000665F  5F                pop edi
00006660  5F                pop edi
00006661  6E                outsb
00006662  6F                outsd
00006663  726D              jc 0x66d2
00006665  61                popa
00006666  6C                insb
00006667  5F                pop edi
00006668  6974657261746F72  imul esi,[ebp+0x72],dword 0x726f7461
00006670  49                dec ecx
00006671  50                push eax
00006672  69537436766563    imul edx,[ebx+0x74],dword 0x63657636
00006679  746F              jz 0x66ea
0000667B  7249              jc 0x66c6
0000667D  69536149694545    imul edx,[ebx+0x61],dword 0x45456949
00006684  45                inc ebp
00006685  646545            gs inc ebp
00006688  7600              jna 0x668a
0000668A  5F                pop edi
0000668B  5A                pop edx
0000668C  53                push ebx
0000668D  7431              jz 0x66c0
0000668F  315F5F            xor [edi+0x5f],ebx
00006692  7075              jo 0x6709
00006694  7368              jnc 0x66fe
00006696  5F                pop edi
00006697  6865617049        push dword 0x49706165
0000669C  4E                dec esi
0000669D  395F5F            cmp [edi+0x5f],ebx
000066A0  676E              a16 outsb
000066A2  755F              jnz 0x6703
000066A4  637878            arpl [eax+0x78],di
000066A7  3137              xor [edi],esi
000066A9  5F                pop edi
000066AA  5F                pop edi
000066AB  6E                outsb
000066AC  6F                outsd
000066AD  726D              jc 0x671c
000066AF  61                popa
000066B0  6C                insb
000066B1  5F                pop edi
000066B2  6974657261746F72  imul esi,[ebp+0x72],dword 0x726f7461
000066BA  49                dec ecx
000066BB  50                push eax
000066BC  69537436766563    imul edx,[ebx+0x74],dword 0x63657636
000066C3  746F              jz 0x6734
000066C5  7249              jc 0x6710
000066C7  69536149694545    imul edx,[ebx+0x61],dword 0x45456949
000066CE  45                inc ebp
000066CF  45                inc ebp
000066D0  69695374346C65    imul ebp,[ecx+0x53],dword 0x656c3474
000066D7  7373              jnc 0x674c
000066D9  49                dec ecx
000066DA  69454576545F54    imul eax,[ebp+0x45],dword 0x545f5476
000066E1  305F53            xor [edi+0x53],bl
000066E4  41                inc ecx
000066E5  5F                pop edi
000066E6  54                push esp
000066E7  315F54            xor [edi+0x54],ebx
000066EA  325F00            xor bl,[edi+0x0]
000066ED  5F                pop edi
000066EE  5A                pop edx
000066EF  4E                dec esi
000066F0  4B                dec ebx
000066F1  395F5F            cmp [edi+0x5f],ebx
000066F4  676E              a16 outsb
000066F6  755F              jnz 0x6757
000066F8  637878            arpl [eax+0x78],di
000066FB  3137              xor [edi],esi
000066FD  5F                pop edi
000066FE  5F                pop edi
000066FF  6E                outsb
00006700  6F                outsd
00006701  726D              jc 0x6770
00006703  61                popa
00006704  6C                insb
00006705  5F                pop edi
00006706  6974657261746F72  imul esi,[ebp+0x72],dword 0x726f7461
0000670E  49                dec ecx
0000670F  50                push eax
00006710  69537436766563    imul edx,[ebx+0x74],dword 0x63657636
00006717  746F              jz 0x6788
00006719  7249              jc 0x6764
0000671B  69536149694545    imul edx,[ebx+0x61],dword 0x45456949
00006722  45                inc ebp
00006723  706C              jo 0x6791
00006725  45                inc ebp
00006726  52                push edx
00006727  4B                dec ebx
00006728  69005F5A4E53      imul eax,[eax],dword 0x534e5a5f
0000672E  7431              jz 0x6761
00006730  3661              ss popa
00006732  6C                insb
00006733  6C                insb
00006734  6F                outsd
00006735  636174            arpl [ecx+0x74],sp
00006738  6F                outsd
00006739  725F              jc 0x679a
0000673B  7472              jz 0x67af
0000673D  61                popa
0000673E  6974734953614969  imul esi,[ebx+esi*2+0x49],dword 0x69496153
00006746  45                inc ebp
00006747  45                inc ebp
00006748  386D61            cmp [ebp+0x61],ch
0000674B  785F              js 0x67ac
0000674D  7369              jnc 0x67b8
0000674F  7A65              jpe 0x67b6
00006751  45                inc ebp
00006752  52                push edx
00006753  4B                dec ebx
00006754  53                push ebx
00006755  305F00            xor [edi+0x0],bl
00006758  5F                pop edi
00006759  5A                pop edx
0000675A  4E                dec esi
0000675B  53                push ebx
0000675C  7431              jz 0x678f
0000675E  3470              xor al,0x70
00006760  7269              jc 0x67cb
00006762  6F                outsd
00006763  7269              jc 0x67ce
00006765  7479              jz 0x67e0
00006767  5F                pop edi
00006768  7175              jno 0x67df
0000676A  657565            gs jnz 0x67d2
0000676D  49                dec ecx
0000676E  69537436766563    imul edx,[ebx+0x74],dword 0x63657636
00006775  746F              jz 0x67e6
00006777  7249              jc 0x67c2
00006779  69536149694545    imul edx,[ebx+0x61],dword 0x45456949
00006780  53                push ebx
00006781  7434              jz 0x67b7
00006783  6C                insb
00006784  657373            gs jnc 0x67fa
00006787  49                dec ecx
00006788  69454543314552    imul eax,[ebp+0x45],dword 0x52453143
0000678F  4B                dec ebx
00006790  53                push ebx
00006791  345F              xor al,0x5f
00006793  4F                dec edi
00006794  53                push ebx
00006795  325F00            xor bl,[edi+0x0]
00006798  5F                pop edi
00006799  5F                pop edi
0000679A  637861            arpl [eax+0x61],di
0000679D  5F                pop edi
0000679E  656E              gs outsb
000067A0  645F              fs pop edi
000067A2  636174            arpl [ecx+0x74],sp
000067A5  636840            arpl [eax+0x40],bp
000067A8  40                inc eax
000067A9  43                inc ebx
000067AA  58                pop eax
000067AB  58                pop eax
000067AC  41                inc ecx
000067AD  42                inc edx
000067AE  49                dec ecx
000067AF  5F                pop edi
000067B0  312E              xor [esi],ebp
000067B2  3300              xor eax,[eax]
000067B4  5F                pop edi
000067B5  5A                pop edx
000067B6  53                push ebx
000067B7  7431              jz 0x67ea
000067B9  37                aaa
000067BA  5F                pop edi
000067BB  5F                pop edi
000067BC  7468              jz 0x6826
000067BE  726F              jc 0x682f
000067C0  775F              ja 0x6821
000067C2  626164            bound esp,[ecx+0x64]
000067C5  5F                pop edi
000067C6  61                popa
000067C7  6C                insb
000067C8  6C                insb
000067C9  6F                outsd
000067CA  637640            arpl [esi+0x40],si
000067CD  40                inc eax
000067CE  47                inc edi
000067CF  4C                dec esp
000067D0  49                dec ecx
000067D1  42                inc edx
000067D2  43                inc ebx
000067D3  58                pop eax
000067D4  58                pop eax
000067D5  5F                pop edi
000067D6  332E              xor ebp,[esi]
000067D8  3400              xor al,0x0
000067DA  5F                pop edi
000067DB  5A                pop edx
000067DC  4E                dec esi
000067DD  53                push ebx
000067DE  7431              jz 0x6811
000067E0  3661              ss popa
000067E2  6C                insb
000067E3  6C                insb
000067E4  6F                outsd
000067E5  636174            arpl [ecx+0x74],sp
000067E8  6F                outsd
000067E9  725F              jc 0x684a
000067EB  7472              jz 0x685f
000067ED  61                popa
000067EE  6974734953614969  imul esi,[ebx+esi*2+0x49],dword 0x69496153
000067F6  45                inc ebp
000067F7  45                inc ebp
000067F8  39636F            cmp [ebx+0x6f],esp
000067FB  6E                outsb
000067FC  7374              jnc 0x6872
000067FE  7275              jc 0x6875
00006800  63744969          arpl [ecx+ecx*2+0x69],si
00006804  49                dec ecx
00006805  52                push edx
00006806  4B                dec ebx
00006807  69454545445463    imul eax,[ebp+0x45],dword 0x63544445
0000680E  6C                insb
0000680F  3132              xor [edx],esi
00006811  5F                pop edi
00006812  53                push ebx
00006813  5F                pop edi
00006814  636F6E            arpl [edi+0x6e],bp
00006817  7374              jnc 0x688d
00006819  7275              jc 0x6890
0000681B  63746670          arpl [esi+0x70],si
0000681F  5F                pop edi
00006820  667030            o16 jo 0x6853
00006823  5F                pop edi
00006824  7370              jnc 0x6896
00006826  636C3766          arpl [edi+esi+0x66],bp
0000682A  6F                outsd
0000682B  7277              jc 0x68a4
0000682D  61                popa
0000682E  7264              jc 0x6894
00006830  49                dec ecx
00006831  54                push esp
00006832  305F45            xor [edi+0x45],bl
00006835  667031            o16 jo 0x6869
00006838  5F                pop edi
00006839  45                inc ebp
0000683A  45                inc ebp
0000683B  45                inc ebp
0000683C  52                push edx
0000683D  53                push ebx
0000683E  305F50            xor [edi+0x50],bl
00006841  54                push esp
00006842  5F                pop edi
00006843  44                inc esp
00006844  704F              jo 0x6895
00006846  53                push ebx
00006847  355F005F5A        xor eax,0x5a5f005f
0000684C  53                push ebx
0000684D  7437              jz 0x6886
0000684F  666F              outsw
00006851  7277              jc 0x68ca
00006853  61                popa
00006854  7264              jc 0x68ba
00006856  49                dec ecx
00006857  69454F545F524E    imul eax,[ebp+0x4f],dword 0x4e525f54
0000685E  53                push ebx
0000685F  7431              jz 0x6892
00006861  367265            ss jc 0x68c9
00006864  6D                insd
00006865  6F                outsd
00006866  7665              jna 0x68cd
00006868  5F                pop edi
00006869  7265              jc 0x68d0
0000686B  66657265          gs o16 jc 0x68d4
0000686F  6E                outsb
00006870  636549            arpl [ebp+0x49],sp
00006873  53                push ebx
00006874  305F45            xor [edi+0x45],bl
00006877  3474              xor al,0x74
00006879  7970              jns 0x68eb
0000687B  6545              gs inc ebp
0000687D  005F5A            add [edi+0x5a],bl
00006880  4E                dec esi
00006881  395F5F            cmp [edi+0x5f],ebx
00006884  676E              a16 outsb
00006886  755F              jnz 0x68e7
00006888  637878            arpl [eax+0x78],di
0000688B  3133              xor [ebx],esi
0000688D  6E                outsb
0000688E  65775F            gs ja 0x68f0
00006891  61                popa
00006892  6C                insb
00006893  6C                insb
00006894  6F                outsd
00006895  636174            arpl [ecx+0x74],sp
00006898  6F                outsd
00006899  7249              jc 0x68e4
0000689B  694539636F6E73    imul eax,[ebp+0x39],dword 0x736e6f63
000068A2  7472              jz 0x6916
000068A4  7563              jnz 0x6909
000068A6  7449              jz 0x68f1
000068A8  6949524B694545    imul ecx,[ecx+0x52],dword 0x4545694b
000068AF  45                inc ebp
000068B0  7650              jna 0x6902
000068B2  54                push esp
000068B3  5F                pop edi
000068B4  44                inc esp
000068B5  704F              jo 0x6906
000068B7  54                push esp
000068B8  305F00            xor [edi+0x0],bl
000068BB  5F                pop edi
000068BC  5F                pop edi
000068BD  637861            arpl [eax+0x61],di
000068C0  5F                pop edi
000068C1  626567            bound esp,[ebp+0x67]
000068C4  696E5F63617463    imul ebp,[esi+0x5f],dword 0x63746163
000068CB  6840404358        push dword 0x58434040
000068D0  58                pop eax
000068D1  41                inc ecx
000068D2  42                inc edx
000068D3  49                dec ecx
000068D4  5F                pop edi
000068D5  312E              xor [esi],ebp
000068D7  3300              xor eax,[eax]
000068D9  5F                pop edi
000068DA  5A                pop edx
000068DB  4E                dec esi
000068DC  53                push ebx
000068DD  7431              jz 0x6910
000068DF  315F5F            xor [edi+0x5f],ebx
000068E2  636F70            arpl [edi+0x70],bp
000068E5  795F              jns 0x6946
000068E7  6D                insd
000068E8  6F                outsd
000068E9  7665              jna 0x6950
000068EB  49                dec ecx
000068EC  4C                dec esp
000068ED  6231              bound esi,[ecx]
000068EF  45                inc ebp
000068F0  4C                dec esp
000068F1  6231              bound esi,[ecx]
000068F3  45                inc ebp
000068F4  53                push ebx
000068F5  7432              jz 0x6929
000068F7  367261            ss jc 0x695b
000068FA  6E                outsb
000068FB  646F              fs outsd
000068FD  6D                insd
000068FE  5F                pop edi
000068FF  61                popa
00006900  636365            arpl [ebx+0x65],sp
00006903  7373              jnc 0x6978
00006905  5F                pop edi
00006906  6974657261746F72  imul esi,[ebp+0x72],dword 0x726f7461
0000690E  5F                pop edi
0000690F  7461              jz 0x6972
00006911  6745              inc ebp
00006913  385F5F            cmp [edi+0x5f],bl
00006916  636F70            arpl [edi+0x70],bp
00006919  795F              jns 0x697a
0000691B  6D                insd
0000691C  49                dec ecx
0000691D  69454550545F50    imul eax,[ebp+0x45],dword 0x505f5450
00006924  4B                dec ebx
00006925  53                push ebx
00006926  335F53            xor ebx,[edi+0x53]
00006929  365F              ss pop edi
0000692B  53                push ebx
0000692C  345F              xor al,0x5f
0000692E  005F5A            add [edi+0x5a],bl
00006931  53                push ebx
00006932  7434              jz 0x6968
00006934  636F70            arpl [edi+0x70],bp
00006937  7949              jns 0x6982
00006939  53                push ebx
0000693A  7431              jz 0x696d
0000693C  336D6F            xor ebp,[ebp+0x6f]
0000693F  7665              jna 0x69a6
00006941  5F                pop edi
00006942  6974657261746F72  imul esi,[ebp+0x72],dword 0x726f7461
0000694A  49                dec ecx
0000694B  50                push eax
0000694C  694553315F4554    imul eax,[ebp+0x53],dword 0x54455f31
00006953  305F54            xor [edi+0x54],bl
00006956  5F                pop edi
00006957  53                push ebx
00006958  345F              xor al,0x5f
0000695A  53                push ebx
0000695B  335F00            xor ebx,[edi+0x0]
0000695E  5F                pop edi
0000695F  5A                pop edx
00006960  4E                dec esi
00006961  4B                dec ebx
00006962  53                push ebx
00006963  7431              jz 0x6996
00006965  325F56            xor bl,[edi+0x56]
00006968  6563746F72        arpl [gs:edi+ebp*2+0x72],si
0000696D  5F                pop edi
0000696E  626173            bound esp,[ecx+0x73]
00006971  6549              gs dec ecx
00006973  69536149694545    imul edx,[ebx+0x61],dword 0x45456949
0000697A  3139              xor [ecx],edi
0000697C  5F                pop edi
0000697D  4D                dec ebp
0000697E  5F                pop edi
0000697F  6765745F          gs jz 0x69e2
00006983  54                push esp
00006984  705F              jo 0x69e5
00006986  61                popa
00006987  6C                insb
00006988  6C                insb
00006989  6F                outsd
0000698A  636174            arpl [ecx+0x74],sp
0000698D  6F                outsd
0000698E  7245              jc 0x69d5
00006990  7600              jna 0x6992
00006992  5F                pop edi
00006993  5A                pop edx
00006994  4E                dec esi
00006995  53                push ebx
00006996  7431              jz 0x69c9
00006998  325F56            xor bl,[edi+0x56]
0000699B  6563746F72        arpl [gs:edi+ebp*2+0x72],si
000069A0  5F                pop edi
000069A1  626173            bound esp,[ecx+0x73]
000069A4  6549              gs dec ecx
000069A6  69536149694545    imul edx,[ebx+0x61],dword 0x45456949
000069AD  3132              xor [edx],esi
000069AF  5F                pop edi
000069B0  56                push esi
000069B1  6563746F72        arpl [gs:edi+ebp*2+0x72],si
000069B6  5F                pop edi
000069B7  696D706C443145    imul ebp,[ebp+0x70],dword 0x4531446c
000069BE  7600              jna 0x69c0
000069C0  5F                pop edi
000069C1  5A                pop edx
000069C2  4E                dec esi
000069C3  4B                dec ebx
000069C4  53                push ebx
000069C5  7431              jz 0x69f8
000069C7  336D6F            xor ebp,[ebp+0x6f]
000069CA  7665              jna 0x6a31
000069CC  5F                pop edi
000069CD  6974657261746F72  imul esi,[ebp+0x72],dword 0x726f7461
000069D5  49                dec ecx
000069D6  50                push eax
000069D7  69453462617365    imul eax,[ebp+0x34],dword 0x65736162
000069DE  45                inc ebp
000069DF  7600              jna 0x69e1
000069E1  5F                pop edi
000069E2  656461            fs popa
000069E5  7461              jz 0x6a48
000069E7  005F5F            add [edi+0x5f],bl
000069EA  677878            js 0x6a65
000069ED  5F                pop edi
000069EE  7065              jo 0x6a55
000069F0  7273              jc 0x6a65
000069F2  6F                outsd
000069F3  6E                outsb
000069F4  61                popa
000069F5  6C                insb
000069F6  6974795F76304040  imul esi,[ecx+edi*2+0x5f],dword 0x40403076
000069FE  43                inc ebx
000069FF  58                pop eax
00006A00  58                pop eax
00006A01  41                inc ecx
00006A02  42                inc edx
00006A03  49                dec ecx
00006A04  5F                pop edi
00006A05  312E              xor [esi],ebp
00006A07  3300              xor eax,[eax]
00006A09  5F                pop edi
00006A0A  5A                pop edx
00006A0B  4E                dec esi
00006A0C  395F5F            cmp [edi+0x5f],ebx
00006A0F  676E              a16 outsb
00006A11  755F              jnz 0x6a72
00006A13  637878            arpl [eax+0x78],di
00006A16  3133              xor [ebx],esi
00006A18  6E                outsb
00006A19  65775F            gs ja 0x6a7b
00006A1C  61                popa
00006A1D  6C                insb
00006A1E  6C                insb
00006A1F  6F                outsd
00006A20  636174            arpl [ecx+0x74],sp
00006A23  6F                outsd
00006A24  7249              jc 0x6a6f
00006A26  69453764657374    imul eax,[ebp+0x37],dword 0x74736564
00006A2D  726F              jc 0x6a9e
00006A2F  7949              jns 0x6a7a
00006A31  6945457650545F    imul eax,[ebp+0x45],dword 0x5f545076
00006A38  005F5A            add [edi+0x5a],bl
00006A3B  4E                dec esi
00006A3C  53                push ebx
00006A3D  61                popa
00006A3E  49                dec ecx
00006A3F  69454431457600    imul eax,[ebp+0x44],dword 0x764531
00006A46  5F                pop edi
00006A47  5A                pop edx
00006A48  4E                dec esi
00006A49  4B                dec ebx
00006A4A  395F5F            cmp [edi+0x5f],ebx
00006A4D  676E              a16 outsb
00006A4F  755F              jnz 0x6ab0
00006A51  637878            arpl [eax+0x78],di
00006A54  3133              xor [ebx],esi
00006A56  6E                outsb
00006A57  65775F            gs ja 0x6ab9
00006A5A  61                popa
00006A5B  6C                insb
00006A5C  6C                insb
00006A5D  6F                outsd
00006A5E  636174            arpl [ecx+0x74],sp
00006A61  6F                outsd
00006A62  7249              jc 0x6aad
00006A64  6945386D61785F    imul eax,[ebp+0x38],dword 0x5f78616d
00006A6B  7369              jnc 0x6ad6
00006A6D  7A65              jpe 0x6ad4
00006A6F  45                inc ebp
00006A70  7600              jna 0x6a72
00006A72  5F                pop edi
00006A73  5A                pop edx
00006A74  4E                dec esi
00006A75  4B                dec ebx
00006A76  53                push ebx
00006A77  7436              jz 0x6aaf
00006A79  7665              jna 0x6ae0
00006A7B  63746F72          arpl [edi+ebp*2+0x72],si
00006A7F  49                dec ecx
00006A80  69536149694545    imul edx,[ebx+0x61],dword 0x45456949
00006A87  3562656769        xor eax,0x69676562
00006A8C  6E                outsb
00006A8D  45                inc ebp
00006A8E  7600              jna 0x6a90
00006A90  5F                pop edi
00006A91  5A                pop edx
00006A92  53                push ebx
00006A93  7431              jz 0x6ac6
00006A95  335F5F            xor ebx,[edi+0x5f]
00006A98  636F70            arpl [edi+0x70],bp
00006A9B  795F              jns 0x6afc
00006A9D  6D                insd
00006A9E  6F                outsd
00006A9F  7665              jna 0x6b06
00006AA1  5F                pop edi
00006AA2  61                popa
00006AA3  49                dec ecx
00006AA4  4C                dec esp
00006AA5  6231              bound esi,[ecx]
00006AA7  45                inc ebp
00006AA8  50                push eax
00006AA9  6953305F455431    imul edx,[ebx+0x30],dword 0x3154455f
00006AB0  5F                pop edi
00006AB1  54                push esp
00006AB2  305F53            xor [edi+0x53],bl
00006AB5  325F53            xor bl,[edi+0x53]
00006AB8  315F00            xor [edi+0x0],ebx
00006ABB  5F                pop edi
00006ABC  55                push ebp
00006ABD  6E                outsb
00006ABE  7769              ja 0x6b29
00006AC0  6E                outsb
00006AC1  645F              fs pop edi
00006AC3  52                push edx
00006AC4  657375            gs jnc 0x6b3c
00006AC7  6D                insd
00006AC8  6540              gs inc eax
00006ACA  40                inc eax
00006ACB  47                inc edi
00006ACC  43                inc ebx
00006ACD  43                inc ebx
00006ACE  5F                pop edi
00006ACF  332E              xor ebp,[esi]
00006AD1  3000              xor [eax],al
00006AD3  5F                pop edi
00006AD4  5A                pop edx
00006AD5  4E                dec esi
00006AD6  53                push ebx
00006AD7  7436              jz 0x6b0f
00006AD9  7665              jna 0x6b40
00006ADB  63746F72          arpl [edi+ebp*2+0x72],si
00006ADF  49                dec ecx
00006AE0  69536149694545    imul edx,[ebx+0x61],dword 0x45456949
00006AE7  397075            cmp [eax+0x75],esi
00006AEA  7368              jnc 0x6b54
00006AEC  5F                pop edi
00006AED  626163            bound esp,[ecx+0x63]
00006AF0  6B45524B          imul eax,[ebp+0x52],byte +0x4b
00006AF4  69005F5A4E53      imul eax,[eax],dword 0x534e5a5f
00006AFA  7431              jz 0x6b2d
00006AFC  3470              xor al,0x70
00006AFE  7269              jc 0x6b69
00006B00  6F                outsd
00006B01  7269              jc 0x6b6c
00006B03  7479              jz 0x6b7e
00006B05  5F                pop edi
00006B06  7175              jno 0x6b7d
00006B08  657565            gs jnz 0x6b70
00006B0B  49                dec ecx
00006B0C  69537436766563    imul edx,[ebx+0x74],dword 0x63657636
00006B13  746F              jz 0x6b84
00006B15  7249              jc 0x6b60
00006B17  69536149694545    imul edx,[ebx+0x61],dword 0x45456949
00006B1E  53                push ebx
00006B1F  7434              jz 0x6b55
00006B21  6C                insb
00006B22  657373            gs jnc 0x6b98
00006B25  49                dec ecx
00006B26  69454543324552    imul eax,[ebp+0x45],dword 0x52453243
00006B2D  4B                dec ebx
00006B2E  53                push ebx
00006B2F  345F              xor al,0x5f
00006B31  4F                dec edi
00006B32  53                push ebx
00006B33  325F00            xor bl,[edi+0x0]
00006B36  5F                pop edi
00006B37  5A                pop edx
00006B38  4E                dec esi
00006B39  53                push ebx
00006B3A  7436              jz 0x6b72
00006B3C  7665              jna 0x6ba3
00006B3E  63746F72          arpl [edi+ebp*2+0x72],si
00006B42  49                dec ecx
00006B43  69536149694545    imul edx,[ebx+0x61],dword 0x45456949
00006B4A  3139              xor [ecx],edi
00006B4C  5F                pop edi
00006B4D  4D                dec ebp
00006B4E  5F                pop edi
00006B4F  656D              gs insd
00006B51  706C              jo 0x6bbf
00006B53  61                popa
00006B54  63655F            arpl [ebp+0x5f],sp
00006B57  626163            bound esp,[ecx+0x63]
00006B5A  6B5F6175          imul ebx,[edi+0x61],byte +0x75
00006B5E  7849              js 0x6ba9
00006B60  49                dec ecx
00006B61  52                push edx
00006B62  4B                dec ebx
00006B63  69454545764470    imul eax,[ebp+0x45],dword 0x70447645
00006B6A  4F                dec edi
00006B6B  54                push esp
00006B6C  5F                pop edi
00006B6D  005F5A            add [edi+0x5a],bl
00006B70  4E                dec esi
00006B71  53                push ebx
00006B72  7432              jz 0x6ba6
00006B74  305F5F            xor [edi+0x5f],bl
00006B77  756E              jnz 0x6be7
00006B79  696E697469616C    imul ebp,[esi+0x69],dword 0x6c616974
00006B80  697A65645F636F    imul edi,[edx+0x65],dword 0x6f635f64
00006B87  7079              jo 0x6c02
00006B89  49                dec ecx
00006B8A  4C                dec esp
00006B8B  6231              bound esi,[ecx]
00006B8D  45                inc ebp
00006B8E  45                inc ebp
00006B8F  3133              xor [ebx],esi
00006B91  5F                pop edi
00006B92  5F                pop edi
00006B93  756E              jnz 0x6c03
00006B95  696E69745F636F    imul ebp,[esi+0x69],dword 0x6f635f74
00006B9C  7079              jo 0x6c17
00006B9E  49                dec ecx
00006B9F  53                push ebx
00006BA0  7431              jz 0x6bd3
00006BA2  336D6F            xor ebp,[ebp+0x6f]
00006BA5  7665              jna 0x6c0c
00006BA7  5F                pop edi
00006BA8  6974657261746F72  imul esi,[ebp+0x72],dword 0x726f7461
00006BB0  49                dec ecx
00006BB1  50                push eax
00006BB2  694553335F4545    imul eax,[ebp+0x53],dword 0x45455f33
00006BB9  54                push esp
00006BBA  305F54            xor [edi+0x54],bl
00006BBD  5F                pop edi
00006BBE  53                push ebx
00006BBF  365F              ss pop edi
00006BC1  53                push ebx
00006BC2  355F005F5A        xor eax,0x5a5f005f
00006BC7  53                push ebx
00006BC8  7431              jz 0x6bfb
00006BCA  325F5F            xor bl,[edi+0x5f]
00006BCD  6E                outsb
00006BCE  697465725F626173  imul esi,[ebp+0x72],dword 0x7361625f
00006BD6  6549              gs dec ecx
00006BD8  50                push eax
00006BD9  69454E53743131    imul eax,[ebp+0x4e],dword 0x31317453
00006BE0  5F                pop edi
00006BE1  4E                dec esi
00006BE2  697465725F626173  imul esi,[ebp+0x72],dword 0x7361625f
00006BEA  6549              gs dec ecx
00006BEC  54                push esp
00006BED  5F                pop edi
00006BEE  45                inc ebp
00006BEF  3133              xor [ebx],esi
00006BF1  6974657261746F72  imul esi,[ebp+0x72],dword 0x726f7461
00006BF9  5F                pop edi
00006BFA  7479              jz 0x6c75
00006BFC  7065              jo 0x6c63
00006BFE  45                inc ebp
00006BFF  53                push ebx
00006C00  325F00            xor bl,[edi+0x0]
00006C03  5F                pop edi
00006C04  5A                pop edx
00006C05  4E                dec esi
00006C06  4B                dec ebx
00006C07  395F5F            cmp [edi+0x5f],ebx
00006C0A  676E              a16 outsb
00006C0C  755F              jnz 0x6c6d
00006C0E  637878            arpl [eax+0x78],di
00006C11  3137              xor [edi],esi
00006C13  5F                pop edi
00006C14  5F                pop edi
00006C15  6E                outsb
00006C16  6F                outsd
00006C17  726D              jc 0x6c86
00006C19  61                popa
00006C1A  6C                insb
00006C1B  5F                pop edi
00006C1C  6974657261746F72  imul esi,[ebp+0x72],dword 0x726f7461
00006C24  49                dec ecx
00006C25  50                push eax
00006C26  4B                dec ebx
00006C27  69537436766563    imul edx,[ebx+0x74],dword 0x63657636
00006C2E  746F              jz 0x6c9f
00006C30  7249              jc 0x6c7b
00006C32  69536149694545    imul edx,[ebx+0x61],dword 0x45456949
00006C39  45                inc ebp
00006C3A  646545            gs inc ebp
00006C3D  7600              jna 0x6c3f
00006C3F  5F                pop edi
00006C40  5A                pop edx
00006C41  4E                dec esi
00006C42  395F5F            cmp [edi+0x5f],ebx
00006C45  676E              a16 outsb
00006C47  755F              jnz 0x6ca8
00006C49  637878            arpl [eax+0x78],di
00006C4C  3133              xor [ebx],esi
00006C4E  6E                outsb
00006C4F  65775F            gs ja 0x6cb1
00006C52  61                popa
00006C53  6C                insb
00006C54  6C                insb
00006C55  6F                outsd
00006C56  636174            arpl [ecx+0x74],sp
00006C59  6F                outsd
00006C5A  7249              jc 0x6ca5
00006C5C  69454332457600    imul eax,[ebp+0x43],dword 0x764532
00006C63  5F                pop edi
00006C64  5A                pop edx
00006C65  4E                dec esi
00006C66  395F5F            cmp [edi+0x5f],ebx
00006C69  676E              a16 outsb
00006C6B  755F              jnz 0x6ccc
00006C6D  637878            arpl [eax+0x78],di
00006C70  6D                insd
00006C71  69495069537436    imul ecx,[ecx+0x50],dword 0x36745369
00006C78  7665              jna 0x6cdf
00006C7A  63746F72          arpl [edi+ebp*2+0x72],si
00006C7E  49                dec ecx
00006C7F  69536149694545    imul edx,[ebx+0x61],dword 0x45456949
00006C86  45                inc ebp
00006C87  45                inc ebp
00006C88  4E                dec esi
00006C89  53                push ebx
00006C8A  5F                pop edi
00006C8B  3137              xor [edi],esi
00006C8D  5F                pop edi
00006C8E  5F                pop edi
00006C8F  6E                outsb
00006C90  6F                outsd
00006C91  726D              jc 0x6d00
00006C93  61                popa
00006C94  6C                insb
00006C95  5F                pop edi
00006C96  6974657261746F72  imul esi,[ebp+0x72],dword 0x726f7461
00006C9E  49                dec ecx
00006C9F  54                push esp
00006CA0  5F                pop edi
00006CA1  54                push esp
00006CA2  305F45            xor [edi+0x45],bl
00006CA5  313564696666      xor [dword 0x66666964],esi
00006CAB  657265            gs jc 0x6d13
00006CAE  6E                outsb
00006CAF  63655F            arpl [ebp+0x5f],sp
00006CB2  7479              jz 0x6d2d
00006CB4  7065              jo 0x6d1b
00006CB6  45                inc ebp
00006CB7  52                push edx
00006CB8  4B                dec ebx
00006CB9  53                push ebx
00006CBA  385F53            cmp [edi+0x53],bl
00006CBD  42                inc edx
00006CBE  5F                pop edi
00006CBF  0000              add [eax],al
00006CC1  2E7379            cs jnc 0x6d3d
00006CC4  6D                insd
00006CC5  7461              jz 0x6d28
00006CC7  6200              bound eax,[eax]
00006CC9  2E7374            cs jnc 0x6d40
00006CCC  7274              jc 0x6d42
00006CCE  61                popa
00006CCF  6200              bound eax,[eax]
00006CD1  2E7368            cs jnc 0x6d3c
00006CD4  7374              jnc 0x6d4a
00006CD6  7274              jc 0x6d4c
00006CD8  61                popa
00006CD9  6200              bound eax,[eax]
00006CDB  2E696E7465727000  imul ebp,[cs:esi+0x74],dword 0x707265
00006CE3  2E6E              cs outsb
00006CE5  6F                outsd
00006CE6  7465              jz 0x6d4d
00006CE8  2E41              cs inc ecx
00006CEA  42                inc edx
00006CEB  49                dec ecx
00006CEC  2D74616700        sub eax,0x676174
00006CF1  2E6E              cs outsb
00006CF3  6F                outsd
00006CF4  7465              jz 0x6d5b
00006CF6  2E676E            cs a16 outsb
00006CF9  752E              jnz 0x6d29
00006CFB  627569            bound esi,[ebp+0x69]
00006CFE  6C                insb
00006CFF  642D6964002E      fs sub eax,0x2e006469
00006D05  676E              a16 outsb
00006D07  752E              jnz 0x6d37
00006D09  6861736800        push dword 0x687361
00006D0E  2E64796E          fs jns 0x6d80
00006D12  7379              jnc 0x6d8d
00006D14  6D                insd
00006D15  002E              add [esi],ch
00006D17  64796E            fs jns 0x6d88
00006D1A  7374              jnc 0x6d90
00006D1C  7200              jc 0x6d1e
00006D1E  2E676E            cs a16 outsb
00006D21  752E              jnz 0x6d51
00006D23  7665              jna 0x6d8a
00006D25  7273              jc 0x6d9a
00006D27  696F6E002E676E    imul ebp,[edi+0x6e],dword 0x6e672e00
00006D2E  752E              jnz 0x6d5e
00006D30  7665              jna 0x6d97
00006D32  7273              jc 0x6da7
00006D34  696F6E5F72002E    imul ebp,[edi+0x6e],dword 0x2e00725f
00006D3B  7265              jc 0x6da2
00006D3D  6C                insb
00006D3E  2E64796E          fs jns 0x6db0
00006D42  002E              add [esi],ch
00006D44  7265              jc 0x6dab
00006D46  6C                insb
00006D47  2E706C            cs jo 0x6db6
00006D4A  7400              jz 0x6d4c
00006D4C  2E696E6974002E70  imul ebp,[cs:esi+0x69],dword 0x702e0074
00006D54  6C                insb
00006D55  742E              jz 0x6d85
00006D57  676F              a16 outsd
00006D59  7400              jz 0x6d5b
00006D5B  2E7465            cs jz 0x6dc3
00006D5E  7874              js 0x6dd4
00006D60  002E              add [esi],ch
00006D62  66696E69002E      imul bp,[esi+0x69],word 0x2e00
00006D68  726F              jc 0x6dd9
00006D6A  6461              fs popa
00006D6C  7461              jz 0x6dcf
00006D6E  002E              add [esi],ch
00006D70  65685F667261      gs push dword 0x6172665f
00006D76  6D                insd
00006D77  655F              gs pop edi
00006D79  686472002E        push dword 0x2e007264
00006D7E  65685F667261      gs push dword 0x6172665f
00006D84  6D                insd
00006D85  65002E            add [gs:esi],ch
00006D88  6763635F          arpl [bp+di+0x5f],sp
00006D8C  657863            gs js 0x6df2
00006D8F  657074            gs jo 0x6e06
00006D92  5F                pop edi
00006D93  7461              jz 0x6df6
00006D95  626C6500          bound ebp,[ebp+0x0]
00006D99  2E696E69745F6172  imul ebp,[cs:esi+0x69],dword 0x72615f74
00006DA1  7261              jc 0x6e04
00006DA3  7900              jns 0x6da5
00006DA5  2E66696E695F61    imul bp,[cs:esi+0x69],word 0x615f
00006DAC  7272              jc 0x6e20
00006DAE  61                popa
00006DAF  7900              jns 0x6db1
00006DB1  2E6A63            cs push byte +0x63
00006DB4  7200              jc 0x6db6
00006DB6  2E64796E          fs jns 0x6e28
00006DBA  61                popa
00006DBB  6D                insd
00006DBC  6963002E676F74    imul esp,[ebx+0x0],dword 0x746f672e
00006DC3  2E706C            cs jo 0x6e32
00006DC6  7400              jz 0x6dc8
00006DC8  2E6461            fs popa
00006DCB  7461              jz 0x6e2e
00006DCD  002E              add [esi],ch
00006DCF  627373            bound esi,[ebx+0x73]
00006DD2  002E              add [esi],ch
00006DD4  636F6D            arpl [edi+0x6d],bp
00006DD7  6D                insd
00006DD8  656E              gs outsb
00006DDA  7400              jz 0x6ddc
00006DDC  0000              add [eax],al
00006DDE  0000              add [eax],al
00006DE0  0000              add [eax],al
00006DE2  0000              add [eax],al
00006DE4  0000              add [eax],al
00006DE6  0000              add [eax],al
00006DE8  0000              add [eax],al
00006DEA  0000              add [eax],al
00006DEC  0000              add [eax],al
00006DEE  0000              add [eax],al
00006DF0  0000              add [eax],al
00006DF2  0000              add [eax],al
00006DF4  0000              add [eax],al
00006DF6  0000              add [eax],al
00006DF8  0000              add [eax],al
00006DFA  0000              add [eax],al
00006DFC  0000              add [eax],al
00006DFE  0000              add [eax],al
00006E00  0000              add [eax],al
00006E02  0000              add [eax],al
00006E04  1B00              sbb eax,[eax]
00006E06  0000              add [eax],al
00006E08  0100              add [eax],eax
00006E0A  0000              add [eax],al
00006E0C  0200              add al,[eax]
00006E0E  0000              add [eax],al
00006E10  54                push esp
00006E11  81040854010000    add dword [eax+ecx],0x154
00006E18  1300              adc eax,[eax]
00006E1A  0000              add [eax],al
00006E1C  0000              add [eax],al
00006E1E  0000              add [eax],al
00006E20  0000              add [eax],al
00006E22  0000              add [eax],al
00006E24  0100              add [eax],eax
00006E26  0000              add [eax],al
00006E28  0000              add [eax],al
00006E2A  0000              add [eax],al
00006E2C  2300              and eax,[eax]
00006E2E  0000              add [eax],al
00006E30  07                pop es
00006E31  0000              add [eax],al
00006E33  0002              add [edx],al
00006E35  0000              add [eax],al
00006E37  006881            add [eax-0x7f],ch
00006E3A  0408              add al,0x8
00006E3C  6801000020        push dword 0x20000001
00006E41  0000              add [eax],al
00006E43  0000              add [eax],al
00006E45  0000              add [eax],al
00006E47  0000              add [eax],al
00006E49  0000              add [eax],al
00006E4B  000400            add [eax+eax],al
00006E4E  0000              add [eax],al
00006E50  0000              add [eax],al
00006E52  0000              add [eax],al
00006E54  3100              xor [eax],eax
00006E56  0000              add [eax],al
00006E58  07                pop es
00006E59  0000              add [eax],al
00006E5B  0002              add [edx],al
00006E5D  0000              add [eax],al
00006E5F  008881040888      add [eax-0x77f7fb7f],cl
00006E65  0100              add [eax],eax
00006E67  002400            add [eax+eax],ah
00006E6A  0000              add [eax],al
00006E6C  0000              add [eax],al
00006E6E  0000              add [eax],al
00006E70  0000              add [eax],al
00006E72  0000              add [eax],al
00006E74  0400              add al,0x0
00006E76  0000              add [eax],al
00006E78  0000              add [eax],al
00006E7A  0000              add [eax],al
00006E7C  44                inc esp
00006E7D  0000              add [eax],al
00006E7F  00F6              add dh,dh
00006E81  FF                db 0xff
00006E82  FF6F02            jmp far [edi+0x2]
00006E85  0000              add [eax],al
00006E87  00AC810408AC01    add [ecx+eax*4+0x1ac0804],ch
00006E8E  0000              add [eax],al
00006E90  2C00              sub al,0x0
00006E92  0000              add [eax],al
00006E94  0500000000        add eax,0x0
00006E99  0000              add [eax],al
00006E9B  000400            add [eax+eax],al
00006E9E  0000              add [eax],al
00006EA0  0400              add al,0x0
00006EA2  0000              add [eax],al
00006EA4  4E                dec esi
00006EA5  0000              add [eax],al
00006EA7  000B              add [ebx],cl
00006EA9  0000              add [eax],al
00006EAB  0002              add [edx],al
00006EAD  0000              add [eax],al
00006EAF  00D8              add al,bl
00006EB1  810408D8010000    add dword [eax+ecx],0x1d8
00006EB8  60                pusha
00006EB9  0100              add [eax],eax
00006EBB  0006              add [esi],al
00006EBD  0000              add [eax],al
00006EBF  0001              add [ecx],al
00006EC1  0000              add [eax],al
00006EC3  000400            add [eax+eax],al
00006EC6  0000              add [eax],al
00006EC8  1000              adc [eax],al
00006ECA  0000              add [eax],al
00006ECC  56                push esi
00006ECD  0000              add [eax],al
00006ECF  0003              add [ebx],al
00006ED1  0000              add [eax],al
00006ED3  0002              add [edx],al
00006ED5  0000              add [eax],al
00006ED7  0038              add [eax],bh
00006ED9  83040838          add dword [eax+ecx],byte +0x38
00006EDD  0300              add eax,[eax]
00006EDF  00C1              add cl,al
00006EE1  0100              add [eax],eax
00006EE3  0000              add [eax],al
00006EE5  0000              add [eax],al
00006EE7  0000              add [eax],al
00006EE9  0000              add [eax],al
00006EEB  0001              add [ecx],al
00006EED  0000              add [eax],al
00006EEF  0000              add [eax],al
00006EF1  0000              add [eax],al
00006EF3  005E00            add [esi+0x0],bl
00006EF6  0000              add [eax],al
00006EF8  FF                db 0xff
00006EF9  FF                db 0xff
00006EFA  FF6F02            jmp far [edi+0x2]
00006EFD  0000              add [eax],al
00006EFF  00FA              add dl,bh
00006F01  840408            test [eax+ecx],al
00006F04  FA                cli
00006F05  0400              add al,0x0
00006F07  002C00            add [eax+eax],ch
00006F0A  0000              add [eax],al
00006F0C  0500000000        add eax,0x0
00006F11  0000              add [eax],al
00006F13  0002              add [edx],al
00006F15  0000              add [eax],al
00006F17  0002              add [edx],al
00006F19  0000              add [eax],al
00006F1B  006B00            add [ebx+0x0],ch
00006F1E  0000              add [eax],al
00006F20  FE                db 0xfe
00006F21  FF                db 0xff
00006F22  FF6F02            jmp far [edi+0x2]
00006F25  0000              add [eax],al
00006F27  0028              add [eax],ch
00006F29  850408            test [eax+ecx],eax
00006F2C  280500008000      sub [dword 0x800000],al
00006F32  0000              add [eax],al
00006F34  06                push es
00006F35  0000              add [eax],al
00006F37  0003              add [ebx],al
00006F39  0000              add [eax],al
00006F3B  000400            add [eax+eax],al
00006F3E  0000              add [eax],al
00006F40  0000              add [eax],al
00006F42  0000              add [eax],al
00006F44  7A00              jpe 0x6f46
00006F46  0000              add [eax],al
00006F48  0900              or [eax],eax
00006F4A  0000              add [eax],al
00006F4C  0200              add al,[eax]
00006F4E  0000              add [eax],al
00006F50  A885              test al,0x85
00006F52  0408              add al,0x8
00006F54  A805              test al,0x5
00006F56  0000              add [eax],al
00006F58  0800              or [eax],al
00006F5A  0000              add [eax],al
00006F5C  0500000000        add eax,0x0
00006F61  0000              add [eax],al
00006F63  000400            add [eax+eax],al
00006F66  0000              add [eax],al
00006F68  0800              or [eax],al
00006F6A  0000              add [eax],al
00006F6C  830000            add dword [eax],byte +0x0
00006F6F  0009              add [ecx],cl
00006F71  0000              add [eax],al
00006F73  004200            add [edx+0x0],al
00006F76  0000              add [eax],al
00006F78  B085              mov al,0x85
00006F7A  0408              add al,0x8
00006F7C  B005              mov al,0x5
00006F7E  0000              add [eax],al
00006F80  800000            add byte [eax],0x0
00006F83  000500000019      add [dword 0x19000000],al
00006F89  0000              add [eax],al
00006F8B  000400            add [eax+eax],al
00006F8E  0000              add [eax],al
00006F90  0800              or [eax],al
00006F92  0000              add [eax],al
00006F94  8C00              mov [eax],es
00006F96  0000              add [eax],al
00006F98  0100              add [eax],eax
00006F9A  0000              add [eax],al
00006F9C  06                push es
00006F9D  0000              add [eax],al
00006F9F  0030              add [eax],dh
00006FA1  860408            xchg al,[eax+ecx]
00006FA4  3006              xor [esi],al
00006FA6  0000              add [eax],al
00006FA8  2300              and eax,[eax]
00006FAA  0000              add [eax],al
00006FAC  0000              add [eax],al
00006FAE  0000              add [eax],al
00006FB0  0000              add [eax],al
00006FB2  0000              add [eax],al
00006FB4  0400              add al,0x0
00006FB6  0000              add [eax],al
00006FB8  0000              add [eax],al
00006FBA  0000              add [eax],al
00006FBC  8700              xchg eax,[eax]
00006FBE  0000              add [eax],al
00006FC0  0100              add [eax],eax
00006FC2  0000              add [eax],al
00006FC4  06                push es
00006FC5  0000              add [eax],al
00006FC7  006086            add [eax-0x7a],ah
00006FCA  0408              add al,0x8
00006FCC  60                pusha
00006FCD  06                push es
00006FCE  0000              add [eax],al
00006FD0  1001              adc [ecx],al
00006FD2  0000              add [eax],al
00006FD4  0000              add [eax],al
00006FD6  0000              add [eax],al
00006FD8  0000              add [eax],al
00006FDA  0000              add [eax],al
00006FDC  1000              adc [eax],al
00006FDE  0000              add [eax],al
00006FE0  0400              add al,0x0
00006FE2  0000              add [eax],al
00006FE4  92                xchg eax,edx
00006FE5  0000              add [eax],al
00006FE7  0001              add [ecx],al
00006FE9  0000              add [eax],al
00006FEB  0006              add [esi],al
00006FED  0000              add [eax],al
00006FEF  007087            add [eax-0x79],dh
00006FF2  0408              add al,0x8
00006FF4  7007              jo 0x6ffd
00006FF6  0000              add [eax],al
00006FF8  0800              or [eax],al
00006FFA  0000              add [eax],al
00006FFC  0000              add [eax],al
00006FFE  0000              add [eax],al
00007000  0000              add [eax],al
00007002  0000              add [eax],al
00007004  0800              or [eax],al
00007006  0000              add [eax],al
00007008  0000              add [eax],al
0000700A  0000              add [eax],al
0000700C  9B0000            wait add [eax],al
0000700F  0001              add [ecx],al
00007011  0000              add [eax],al
00007013  0006              add [esi],al
00007015  0000              add [eax],al
00007017  008087040880      add [eax-0x7ff7fb79],al
0000701D  07                pop es
0000701E  0000              add [eax],al
00007020  B218              mov dl,0x18
00007022  0000              add [eax],al
00007024  0000              add [eax],al
00007026  0000              add [eax],al
00007028  0000              add [eax],al
0000702A  0000              add [eax],al
0000702C  1000              adc [eax],al
0000702E  0000              add [eax],al
00007030  0000              add [eax],al
00007032  0000              add [eax],al
00007034  A100000001        mov eax,[0x1000000]
00007039  0000              add [eax],al
0000703B  0006              add [esi],al
0000703D  0000              add [eax],al
0000703F  0034A0            add [eax],dh
00007042  0408              add al,0x8
00007044  3420              xor al,0x20
00007046  0000              add [eax],al
00007048  1400              adc al,0x0
0000704A  0000              add [eax],al
0000704C  0000              add [eax],al
0000704E  0000              add [eax],al
00007050  0000              add [eax],al
00007052  0000              add [eax],al
00007054  0400              add al,0x0
00007056  0000              add [eax],al
00007058  0000              add [eax],al
0000705A  0000              add [eax],al
0000705C  A7                cmpsd
0000705D  0000              add [eax],al
0000705F  0001              add [ecx],al
00007061  0000              add [eax],al
00007063  0002              add [edx],al
00007065  0000              add [eax],al
00007067  0048A0            add [eax-0x60],cl
0000706A  0408              add al,0x8
0000706C  48                dec eax
0000706D  2000              and [eax],al
0000706F  00440000          add [eax+eax+0x0],al
00007073  0000              add [eax],al
00007075  0000              add [eax],al
00007077  0000              add [eax],al
00007079  0000              add [eax],al
0000707B  000400            add [eax+eax],al
0000707E  0000              add [eax],al
00007080  0000              add [eax],al
00007082  0000              add [eax],al
00007084  AF                scasd
00007085  0000              add [eax],al
00007087  0001              add [ecx],al
00007089  0000              add [eax],al
0000708B  0002              add [edx],al
0000708D  0000              add [eax],al
0000708F  008CA004088C20    add [eax+0x208c0804],cl
00007096  0000              add [eax],al
00007098  3C03              cmp al,0x3
0000709A  0000              add [eax],al
0000709C  0000              add [eax],al
0000709E  0000              add [eax],al
000070A0  0000              add [eax],al
000070A2  0000              add [eax],al
000070A4  0400              add al,0x0
000070A6  0000              add [eax],al
000070A8  0000              add [eax],al
000070AA  0000              add [eax],al
000070AC  BD00000001        mov ebp,0x1000000
000070B1  0000              add [eax],al
000070B3  0002              add [edx],al
000070B5  0000              add [eax],al
000070B7  00C8              add al,cl
000070B9  A30408C823        mov [0x23c80804],eax
000070BE  0000              add [eax],al
000070C0  B80D000000        mov eax,0xd
000070C5  0000              add [eax],al
000070C7  0000              add [eax],al
000070C9  0000              add [eax],al
000070CB  000400            add [eax+eax],al
000070CE  0000              add [eax],al
000070D0  0000              add [eax],al
000070D2  0000              add [eax],al
000070D4  C70000000100      mov dword [eax],0x10000
000070DA  0000              add [eax],al
000070DC  0200              add al,[eax]
000070DE  0000              add [eax],al
000070E0  80B10408803100    xor byte [ecx+0x31800804],0x0
000070E7  008000000000      add [eax+0x0],al
000070ED  0000              add [eax],al
000070EF  0000              add [eax],al
000070F1  0000              add [eax],al
000070F3  000400            add [eax+eax],al
000070F6  0000              add [eax],al
000070F8  0000              add [eax],al
000070FA  0000              add [eax],al
000070FC  D900              fld dword [eax]
000070FE  0000              add [eax],al
00007100  0E                push cs
00007101  0000              add [eax],al
00007103  0003              add [ebx],al
00007105  0000              add [eax],al
00007107  00F4              add ah,dh
00007109  CE                into
0000710A  0408              add al,0x8
0000710C  F4                hlt
0000710D  3E0000            add [ds:eax],al
00007110  0800              or [eax],al
00007112  0000              add [eax],al
00007114  0000              add [eax],al
00007116  0000              add [eax],al
00007118  0000              add [eax],al
0000711A  0000              add [eax],al
0000711C  0400              add al,0x0
0000711E  0000              add [eax],al
00007120  0000              add [eax],al
00007122  0000              add [eax],al
00007124  E500              in eax,0x0
00007126  0000              add [eax],al
00007128  0F0000            sldt [eax]
0000712B  0003              add [ebx],al
0000712D  0000              add [eax],al
0000712F  00FC              add ah,bh
00007131  CE                into
00007132  0408              add al,0x8
00007134  FC                cld
00007135  3E0000            add [ds:eax],al
00007138  0400              add al,0x0
0000713A  0000              add [eax],al
0000713C  0000              add [eax],al
0000713E  0000              add [eax],al
00007140  0000              add [eax],al
00007142  0000              add [eax],al
00007144  0400              add al,0x0
00007146  0000              add [eax],al
00007148  0000              add [eax],al
0000714A  0000              add [eax],al
0000714C  F1                int1
0000714D  0000              add [eax],al
0000714F  0001              add [ecx],al
00007151  0000              add [eax],al
00007153  0003              add [ebx],al
00007155  0000              add [eax],al
00007157  0000              add [eax],al
00007159  CF                iret
0000715A  0408              add al,0x8
0000715C  003F              add [edi],bh
0000715E  0000              add [eax],al
00007160  0400              add al,0x0
00007162  0000              add [eax],al
00007164  0000              add [eax],al
00007166  0000              add [eax],al
00007168  0000              add [eax],al
0000716A  0000              add [eax],al
0000716C  0400              add al,0x0
0000716E  0000              add [eax],al
00007170  0000              add [eax],al
00007172  0000              add [eax],al
00007174  F60000            test byte [eax],0x0
00007177  0006              add [esi],al
00007179  0000              add [eax],al
0000717B  0003              add [ebx],al
0000717D  0000              add [eax],al
0000717F  0004CF            add [edi+ecx*8],al
00007182  0408              add al,0x8
00007184  043F              add al,0x3f
00007186  0000              add [eax],al
00007188  F8                clc
00007189  0000              add [eax],al
0000718B  0006              add [esi],al
0000718D  0000              add [eax],al
0000718F  0000              add [eax],al
00007191  0000              add [eax],al
00007193  000400            add [eax+eax],al
00007196  0000              add [eax],al
00007198  0800              or [eax],al
0000719A  0000              add [eax],al
0000719C  96                xchg eax,esi
0000719D  0000              add [eax],al
0000719F  0001              add [ecx],al
000071A1  0000              add [eax],al
000071A3  0003              add [ebx],al
000071A5  0000              add [eax],al
000071A7  00FC              add ah,bh
000071A9  CF                iret
000071AA  0408              add al,0x8
000071AC  FC                cld
000071AD  3F                aas
000071AE  0000              add [eax],al
000071B0  0400              add al,0x0
000071B2  0000              add [eax],al
000071B4  0000              add [eax],al
000071B6  0000              add [eax],al
000071B8  0000              add [eax],al
000071BA  0000              add [eax],al
000071BC  0400              add al,0x0
000071BE  0000              add [eax],al
000071C0  0400              add al,0x0
000071C2  0000              add [eax],al
000071C4  FF00              inc dword [eax]
000071C6  0000              add [eax],al
000071C8  0100              add [eax],eax
000071CA  0000              add [eax],al
000071CC  0300              add eax,[eax]
000071CE  0000              add [eax],al
000071D0  00D0              add al,dl
000071D2  0408              add al,0x8
000071D4  004000            add [eax+0x0],al
000071D7  004C0000          add [eax+eax+0x0],cl
000071DB  0000              add [eax],al
000071DD  0000              add [eax],al
000071DF  0000              add [eax],al
000071E1  0000              add [eax],al
000071E3  000400            add [eax+eax],al
000071E6  0000              add [eax],al
000071E8  0400              add al,0x0
000071EA  0000              add [eax],al
000071EC  0801              or [ecx],al
000071EE  0000              add [eax],al
000071F0  0100              add [eax],eax
000071F2  0000              add [eax],al
000071F4  0300              add eax,[eax]
000071F6  0000              add [eax],al
000071F8  4C                dec esp
000071F9  D00408            rol byte [eax+ecx],1
000071FC  4C                dec esp
000071FD  40                inc eax
000071FE  0000              add [eax],al
00007200  0800              or [eax],al
00007202  0000              add [eax],al
00007204  0000              add [eax],al
00007206  0000              add [eax],al
00007208  0000              add [eax],al
0000720A  0000              add [eax],al
0000720C  0400              add al,0x0
0000720E  0000              add [eax],al
00007210  0000              add [eax],al
00007212  0000              add [eax],al
00007214  0E                push cs
00007215  0100              add [eax],eax
00007217  0008              add [eax],cl
00007219  0000              add [eax],al
0000721B  0003              add [ebx],al
0000721D  0000              add [eax],al
0000721F  0054D004          add [eax+edx*8+0x4],dl
00007223  08544000          or [eax+eax*2+0x0],dl
00007227  000400            add [eax+eax],al
0000722A  0000              add [eax],al
0000722C  0000              add [eax],al
0000722E  0000              add [eax],al
00007230  0000              add [eax],al
00007232  0000              add [eax],al
00007234  0100              add [eax],eax
00007236  0000              add [eax],al
00007238  0000              add [eax],al
0000723A  0000              add [eax],al
0000723C  1301              adc eax,[ecx]
0000723E  0000              add [eax],al
00007240  0100              add [eax],eax
00007242  0000              add [eax],al
00007244  3000              xor [eax],al
00007246  0000              add [eax],al
00007248  0000              add [eax],al
0000724A  0000              add [eax],al
0000724C  54                push esp
0000724D  40                inc eax
0000724E  0000              add [eax],al
00007250  2300              and eax,[eax]
00007252  0000              add [eax],al
00007254  0000              add [eax],al
00007256  0000              add [eax],al
00007258  0000              add [eax],al
0000725A  0000              add [eax],al
0000725C  0100              add [eax],eax
0000725E  0000              add [eax],al
00007260  0100              add [eax],eax
00007262  0000              add [eax],al
00007264  1100              adc [eax],eax
00007266  0000              add [eax],al
00007268  0300              add eax,[eax]
0000726A  0000              add [eax],al
0000726C  0000              add [eax],al
0000726E  0000              add [eax],al
00007270  0000              add [eax],al
00007272  0000              add [eax],al
00007274  C06C00001C        shr byte [eax+eax+0x0],byte 0x1c
00007279  0100              add [eax],eax
0000727B  0000              add [eax],al
0000727D  0000              add [eax],al
0000727F  0000              add [eax],al
00007281  0000              add [eax],al
00007283  0001              add [ecx],al
00007285  0000              add [eax],al
00007287  0000              add [eax],al
00007289  0000              add [eax],al
0000728B  0001              add [ecx],al
0000728D  0000              add [eax],al
0000728F  0002              add [edx],al
00007291  0000              add [eax],al
00007293  0000              add [eax],al
00007295  0000              add [eax],al
00007297  0000              add [eax],al
00007299  0000              add [eax],al
0000729B  007840            add [eax+0x40],bh
0000729E  0000              add [eax],al
000072A0  800D00001F0000    or byte [dword 0x1f0000],0x0
000072A7  0037              add [edi],dh
000072A9  0000              add [eax],al
000072AB  000400            add [eax+eax],al
000072AE  0000              add [eax],al
000072B0  1000              adc [eax],al
000072B2  0000              add [eax],al
000072B4  0900              or [eax],eax
000072B6  0000              add [eax],al
000072B8  0300              add eax,[eax]
000072BA  0000              add [eax],al
000072BC  0000              add [eax],al
000072BE  0000              add [eax],al
000072C0  0000              add [eax],al
000072C2  0000              add [eax],al
000072C4  F8                clc
000072C5  4D                dec ebp
000072C6  0000              add [eax],al
000072C8  C81E0000          enter 0x1e,0x0
000072CC  0000              add [eax],al
000072CE  0000              add [eax],al
000072D0  0000              add [eax],al
000072D2  0000              add [eax],al
000072D4  0100              add [eax],eax
000072D6  0000              add [eax],al
000072D8  0000              add [eax],al
000072DA  0000              add [eax],al
